
xinu.elf:     file format elf64-littleriscv


Disassembly of section .init:

0000000080000000 <_start>:
    80000000:	00c0506f          	j	8000500c <reset_handler>

Disassembly of section .text:

0000000080001000 <nulluser>:
    80001000:	fd010113          	addi	sp,sp,-48
    80001004:	02113423          	sd	ra,40(sp)
    80001008:	02813023          	sd	s0,32(sp)
    8000100c:	00913c23          	sd	s1,24(sp)
    80001010:	01213823          	sd	s2,16(sp)
    80001014:	01313423          	sd	s3,8(sp)
    80001018:	218040ef          	jal	ra,80005230 <gethartid>
    8000101c:	0005051b          	sext.w	a0,a0
    80001020:	22051e63          	bnez	a0,8000125c <nulluser+0x25c>
    80001024:	4f9000ef          	jal	ra,80001d1c <platforminit>
    80001028:	00100793          	li	a5,1
    8000102c:	0000b717          	auipc	a4,0xb
    80001030:	baf72c23          	sw	a5,-1096(a4) # 8000bbe4 <numproc>
    80001034:	00006797          	auipc	a5,0x6
    80001038:	08478793          	addi	a5,a5,132 # 800070b8 <proctab>
    8000103c:	0000a717          	auipc	a4,0xa
    80001040:	21c70713          	addi	a4,a4,540 # 8000b258 <queuetab>
    80001044:	00078413          	mv	s0,a5
    80001048:	0007a023          	sw	zero,0(a5)
    8000104c:	15078793          	addi	a5,a5,336
    80001050:	fee79ce3          	bne	a5,a4,80001048 <nulluser+0x48>
    80001054:	00700613          	li	a2,7
    80001058:	00002597          	auipc	a1,0x2
    8000105c:	1d858593          	addi	a1,a1,472 # 80003230 <strrchr+0x28>
    80001060:	00100793          	li	a5,1
    80001064:	00006517          	auipc	a0,0x6
    80001068:	07050513          	addi	a0,a0,112 # 800070d4 <proctab+0x1c>
    8000106c:	00f42023          	sw	a5,0(s0)
    80001070:	0000b497          	auipc	s1,0xb
    80001074:	b6848493          	addi	s1,s1,-1176 # 8000bbd8 <memheap>
    80001078:	130020ef          	jal	ra,800031a8 <strncpy>
    8000107c:	0004b783          	ld	a5,0(s1)
    80001080:	0000b917          	auipc	s2,0xb
    80001084:	f8090913          	addi	s2,s2,-128 # 8000c000 <_end>
    80001088:	01243423          	sd	s2,8(s0)
    8000108c:	412787b3          	sub	a5,a5,s2
    80001090:	00f42823          	sw	a5,16(s0)
    80001094:	00006797          	auipc	a5,0x6
    80001098:	0207a423          	sw	zero,40(a5) # 800070bc <proctab+0x4>
    8000109c:	10000793          	li	a5,256
    800010a0:	02f43c23          	sd	a5,56(s0)
    800010a4:	00006417          	auipc	s0,0x6
    800010a8:	f5c40413          	addi	s0,s0,-164 # 80007000 <readylist>
    800010ac:	0000b797          	auipc	a5,0xb
    800010b0:	b207aa23          	sw	zero,-1228(a5) # 8000bbe0 <currpid>
    800010b4:	635000ef          	jal	ra,80001ee8 <newqueue>
    800010b8:	00a43023          	sd	a0,0(s0)
    800010bc:	62d000ef          	jal	ra,80001ee8 <newqueue>
    800010c0:	00a43423          	sd	a0,8(s0)
    800010c4:	625000ef          	jal	ra,80001ee8 <newqueue>
    800010c8:	00300793          	li	a5,3
    800010cc:	0000b717          	auipc	a4,0xb
    800010d0:	aef73623          	sd	a5,-1300(a4) # 8000bbb8 <promote_medium>
    800010d4:	0000b717          	auipc	a4,0xb
    800010d8:	acf73e23          	sd	a5,-1316(a4) # 8000bbb0 <promote_low>
    800010dc:	00a43823          	sd	a0,16(s0)
    800010e0:	00000713          	li	a4,0
    800010e4:	0000a517          	auipc	a0,0xa
    800010e8:	3c450513          	addi	a0,a0,964 # 8000b4a8 <locktab>
    800010ec:	00c00813          	li	a6,12
    800010f0:	00100593          	li	a1,1
    800010f4:	fff00613          	li	a2,-1
    800010f8:	09600693          	li	a3,150
    800010fc:	030707b3          	mul	a5,a4,a6
    80001100:	0017071b          	addiw	a4,a4,1
    80001104:	00f507b3          	add	a5,a0,a5
    80001108:	00b78023          	sb	a1,0(a5)
    8000110c:	0007a223          	sw	zero,4(a5)
    80001110:	00c7a423          	sw	a2,8(a5)
    80001114:	fed714e3          	bne	a4,a3,800010fc <nulluser+0xfc>
    80001118:	00002517          	auipc	a0,0x2
    8000111c:	12050513          	addi	a0,a0,288 # 80003238 <strrchr+0x30>
    80001120:	379000ef          	jal	ra,80001c98 <kprintf>
    80001124:	00002517          	auipc	a0,0x2
    80001128:	1a450513          	addi	a0,a0,420 # 800032c8 <strrchr+0xc0>
    8000112c:	36d000ef          	jal	ra,80001c98 <kprintf>
    80001130:	09c44703          	lbu	a4,156(s0)
    80001134:	05042683          	lw	a3,80(s0)
    80001138:	00006617          	auipc	a2,0x6
    8000113c:	ef260613          	addi	a2,a2,-270 # 8000702a <platform+0x12>
    80001140:	00006797          	auipc	a5,0x6
    80001144:	f5d78793          	addi	a5,a5,-163 # 8000709d <platform+0x85>
    80001148:	00006597          	auipc	a1,0x6
    8000114c:	ed058593          	addi	a1,a1,-304 # 80007018 <platform>
    80001150:	00002517          	auipc	a0,0x2
    80001154:	14850513          	addi	a0,a0,328 # 80003298 <strrchr+0x90>
    80001158:	341000ef          	jal	ra,80001c98 <kprintf>
    8000115c:	06843783          	ld	a5,104(s0)
    80001160:	07043583          	ld	a1,112(s0)
    80001164:	00002517          	auipc	a0,0x2
    80001168:	16c50513          	addi	a0,a0,364 # 800032d0 <strrchr+0xc8>
    8000116c:	fffff997          	auipc	s3,0xfffff
    80001170:	e9498993          	addi	s3,s3,-364 # 80000000 <_start>
    80001174:	40f585b3          	sub	a1,a1,a5
    80001178:	321000ef          	jal	ra,80001c98 <kprintf>
    8000117c:	07043603          	ld	a2,112(s0)
    80001180:	06843583          	ld	a1,104(s0)
    80001184:	00002517          	auipc	a0,0x2
    80001188:	16c50513          	addi	a0,a0,364 # 800032f0 <strrchr+0xe8>
    8000118c:	fff60613          	addi	a2,a2,-1
    80001190:	309000ef          	jal	ra,80001c98 <kprintf>
    80001194:	06843583          	ld	a1,104(s0)
    80001198:	00002517          	auipc	a0,0x2
    8000119c:	18050513          	addi	a0,a0,384 # 80003318 <strrchr+0x110>
    800011a0:	40b985b3          	sub	a1,s3,a1
    800011a4:	2f5000ef          	jal	ra,80001c98 <kprintf>
    800011a8:	06843583          	ld	a1,104(s0)
    800011ac:	fffff617          	auipc	a2,0xfffff
    800011b0:	e5360613          	addi	a2,a2,-429 # 7fffffff <_binary_data_elf_size+0x7fffebdf>
    800011b4:	00002517          	auipc	a0,0x2
    800011b8:	13c50513          	addi	a0,a0,316 # 800032f0 <strrchr+0xe8>
    800011bc:	2dd000ef          	jal	ra,80001c98 <kprintf>
    800011c0:	413905b3          	sub	a1,s2,s3
    800011c4:	00002517          	auipc	a0,0x2
    800011c8:	17c50513          	addi	a0,a0,380 # 80003340 <strrchr+0x138>
    800011cc:	2cd000ef          	jal	ra,80001c98 <kprintf>
    800011d0:	0000b617          	auipc	a2,0xb
    800011d4:	e2f60613          	addi	a2,a2,-465 # 8000bfff <pgfreelist+0x40f>
    800011d8:	00098593          	mv	a1,s3
    800011dc:	00002517          	auipc	a0,0x2
    800011e0:	11450513          	addi	a0,a0,276 # 800032f0 <strrchr+0xe8>
    800011e4:	2b5000ef          	jal	ra,80001c98 <kprintf>
    800011e8:	0004b583          	ld	a1,0(s1)
    800011ec:	00002517          	auipc	a0,0x2
    800011f0:	16c50513          	addi	a0,a0,364 # 80003358 <strrchr+0x150>
    800011f4:	412585b3          	sub	a1,a1,s2
    800011f8:	2a1000ef          	jal	ra,80001c98 <kprintf>
    800011fc:	0004b603          	ld	a2,0(s1)
    80001200:	0000b597          	auipc	a1,0xb
    80001204:	e0058593          	addi	a1,a1,-512 # 8000c000 <_end>
    80001208:	00002517          	auipc	a0,0x2
    8000120c:	0e850513          	addi	a0,a0,232 # 800032f0 <strrchr+0xe8>
    80001210:	fff60613          	addi	a2,a2,-1
    80001214:	285000ef          	jal	ra,80001c98 <kprintf>
    80001218:	0004b783          	ld	a5,0(s1)
    8000121c:	07043583          	ld	a1,112(s0)
    80001220:	00002517          	auipc	a0,0x2
    80001224:	16050513          	addi	a0,a0,352 # 80003380 <strrchr+0x178>
    80001228:	40f585b3          	sub	a1,a1,a5
    8000122c:	26d000ef          	jal	ra,80001c98 <kprintf>
    80001230:	07043603          	ld	a2,112(s0)
    80001234:	0004b583          	ld	a1,0(s1)
    80001238:	00002517          	auipc	a0,0x2
    8000123c:	16850513          	addi	a0,a0,360 # 800033a0 <strrchr+0x198>
    80001240:	fff60613          	addi	a2,a2,-1
    80001244:	255000ef          	jal	ra,80001c98 <kprintf>
    80001248:	00002517          	auipc	a0,0x2
    8000124c:	35850513          	addi	a0,a0,856 # 800035a0 <strrchr+0x398>
    80001250:	249000ef          	jal	ra,80001c98 <kprintf>
    80001254:	110010ef          	jal	ra,80002364 <safeInit>
    80001258:	3f0010ef          	jal	ra,80002648 <safeKmapInit>
    8000125c:	000105b7          	lui	a1,0x10
    80001260:	00000713          	li	a4,0
    80001264:	00002697          	auipc	a3,0x2
    80001268:	16468693          	addi	a3,a3,356 # 800033c8 <strrchr+0x1c0>
    8000126c:	00000613          	li	a2,0
    80001270:	00002517          	auipc	a0,0x2
    80001274:	89c50513          	addi	a0,a0,-1892 # 80002b0c <main>
    80001278:	044000ef          	jal	ra,800012bc <create>
    8000127c:	00000593          	li	a1,0
    80001280:	4c5000ef          	jal	ra,80001f44 <ready>
    80001284:	599000ef          	jal	ra,8000201c <resched>
    80001288:	ffdff06f          	j	80001284 <nulluser+0x284>

000000008000128c <userret>:
    8000128c:	ff010113          	addi	sp,sp,-16
    80001290:	00113423          	sd	ra,8(sp)
    80001294:	79d030ef          	jal	ra,80005230 <gethartid>
    80001298:	02051793          	slli	a5,a0,0x20
    8000129c:	01e7d513          	srli	a0,a5,0x1e
    800012a0:	0000b797          	auipc	a5,0xb
    800012a4:	94078793          	addi	a5,a5,-1728 # 8000bbe0 <currpid>
    800012a8:	00a787b3          	add	a5,a5,a0
    800012ac:	00813083          	ld	ra,8(sp)
    800012b0:	0007a503          	lw	a0,0(a5)
    800012b4:	01010113          	addi	sp,sp,16
    800012b8:	6dc0106f          	j	80002994 <user_kill>

00000000800012bc <create>:
    800012bc:	f7010113          	addi	sp,sp,-144
    800012c0:	05413023          	sd	s4,64(sp)
    800012c4:	03513c23          	sd	s5,56(sp)
    800012c8:	03713423          	sd	s7,40(sp)
    800012cc:	03813023          	sd	s8,32(sp)
    800012d0:	06f13c23          	sd	a5,120(sp)
    800012d4:	06113423          	sd	ra,104(sp)
    800012d8:	06813023          	sd	s0,96(sp)
    800012dc:	04913c23          	sd	s1,88(sp)
    800012e0:	05213823          	sd	s2,80(sp)
    800012e4:	05313423          	sd	s3,72(sp)
    800012e8:	03613823          	sd	s6,48(sp)
    800012ec:	01913c23          	sd	s9,24(sp)
    800012f0:	01a13823          	sd	s10,16(sp)
    800012f4:	09013023          	sd	a6,128(sp)
    800012f8:	09113423          	sd	a7,136(sp)
    800012fc:	000017b7          	lui	a5,0x1
    80001300:	00050a93          	mv	s5,a0
    80001304:	00060b93          	mv	s7,a2
    80001308:	00068c13          	mv	s8,a3
    8000130c:	00070a13          	mv	s4,a4
    80001310:	00f5f463          	bgeu	a1,a5,80001318 <create+0x5c>
    80001314:	000015b7          	lui	a1,0x1
    80001318:	00100793          	li	a5,1
    8000131c:	02079793          	slli	a5,a5,0x20
    80001320:	00358593          	addi	a1,a1,3 # 1003 <_binary_data_elf_size-0x41d>
    80001324:	ffc78793          	addi	a5,a5,-4 # ffc <_binary_data_elf_size-0x424>
    80001328:	00f5fb33          	and	s6,a1,a5
    8000132c:	068010ef          	jal	ra,80002394 <pgalloc>
    80001330:	00050413          	mv	s0,a0
    80001334:	00006917          	auipc	s2,0x6
    80001338:	ed490913          	addi	s2,s2,-300 # 80007208 <proctab+0x150>
    8000133c:	00100493          	li	s1,1
    80001340:	03200993          	li	s3,50
    80001344:	00200613          	li	a2,2
    80001348:	00000593          	li	a1,0
    8000134c:	00090513          	mv	a0,s2
    80001350:	56d030ef          	jal	ra,800050bc <_atomic_compareAndSwapWeak>
    80001354:	00051a63          	bnez	a0,80001368 <create+0xac>
    80001358:	0014849b          	addiw	s1,s1,1
    8000135c:	15090913          	addi	s2,s2,336
    80001360:	ff3492e3          	bne	s1,s3,80001344 <create+0x88>
    80001364:	fff00493          	li	s1,-1
    80001368:	fff00d13          	li	s10,-1
    8000136c:	17a40a63          	beq	s0,s10,800014e0 <create+0x224>
    80001370:	11a48e63          	beq	s1,s10,8000148c <create+0x1d0>
    80001374:	15000913          	li	s2,336
    80001378:	03248933          	mul	s2,s1,s2
    8000137c:	0000b717          	auipc	a4,0xb
    80001380:	86870713          	addi	a4,a4,-1944 # 8000bbe4 <numproc>
    80001384:	00072783          	lw	a5,0(a4)
    80001388:	00006c97          	auipc	s9,0x6
    8000138c:	d30c8c93          	addi	s9,s9,-720 # 800070b8 <proctab>
    80001390:	01000613          	li	a2,16
    80001394:	0017879b          	addiw	a5,a5,1
    80001398:	00f72023          	sw	a5,0(a4)
    8000139c:	00200793          	li	a5,2
    800013a0:	000c0593          	mv	a1,s8
    800013a4:	012c89b3          	add	s3,s9,s2
    800013a8:	01c90513          	addi	a0,s2,28
    800013ac:	00f9a023          	sw	a5,0(s3)
    800013b0:	0089b423          	sd	s0,8(s3)
    800013b4:	0169a823          	sw	s6,16(s3)
    800013b8:	00ac8533          	add	a0,s9,a0
    800013bc:	5ed010ef          	jal	ra,800031a8 <strncpy>
    800013c0:	00040513          	mv	a0,s0
    800013c4:	01a9aa23          	sw	s10,20(s3)
    800013c8:	0179a223          	sw	s7,4(s3)
    800013cc:	6cc000ef          	jal	ra,80001a98 <vmcreate>
    800013d0:	000017b7          	lui	a5,0x1
    800013d4:	0a0ab737          	lui	a4,0xa0ab
    800013d8:	02a9b823          	sd	a0,48(s3)
    800013dc:	0209bc23          	sd	zero,56(s3)
    800013e0:	00f407b3          	add	a5,s0,a5
    800013e4:	a9970713          	addi	a4,a4,-1383 # a0aaa99 <_binary_data_elf_size+0xa0a9679>
    800013e8:	00e7b023          	sd	a4,0(a5) # 1000 <_binary_data_elf_size-0x420>
    800013ec:	fe97bc23          	sd	s1,-8(a5)
    800013f0:	0109a703          	lw	a4,16(s3)
    800013f4:	fee7b823          	sd	a4,-16(a5)
    800013f8:	0089b703          	ld	a4,8(s3)
    800013fc:	fee7b423          	sd	a4,-24(a5)
    80001400:	0e0a0463          	beqz	s4,800014e8 <create+0x22c>
    80001404:	fe878793          	addi	a5,a5,-24
    80001408:	fffa0713          	addi	a4,s4,-1
    8000140c:	ff877713          	andi	a4,a4,-8
    80001410:	00078613          	mv	a2,a5
    80001414:	00000693          	li	a3,0
    80001418:	0ae69863          	bne	a3,a4,800014c8 <create+0x20c>
    8000141c:	ff800613          	li	a2,-8
    80001420:	02c686b3          	mul	a3,a3,a2
    80001424:	07810713          	addi	a4,sp,120
    80001428:	00e13423          	sd	a4,8(sp)
    8000142c:	012c8933          	add	s2,s9,s2
    80001430:	00700593          	li	a1,7
    80001434:	fc068693          	addi	a3,a3,-64
    80001438:	00d787b3          	add	a5,a5,a3
    8000143c:	00000693          	li	a3,0
    80001440:	00870613          	addi	a2,a4,8
    80001444:	00073703          	ld	a4,0(a4)
    80001448:	08d5e863          	bltu	a1,a3,800014d8 <create+0x21c>
    8000144c:	04e93023          	sd	a4,64(s2)
    80001450:	00168693          	addi	a3,a3,1
    80001454:	00060713          	mv	a4,a2
    80001458:	00890913          	addi	s2,s2,8
    8000145c:	00878793          	addi	a5,a5,8
    80001460:	feda10e3          	bne	s4,a3,80001440 <create+0x184>
    80001464:	15000793          	li	a5,336
    80001468:	02f487b3          	mul	a5,s1,a5
    8000146c:	00000717          	auipc	a4,0x0
    80001470:	e2070713          	addi	a4,a4,-480 # 8000128c <userret>
    80001474:	00fc87b3          	add	a5,s9,a5
    80001478:	0ee7b023          	sd	a4,224(a5)
    8000147c:	00100713          	li	a4,1
    80001480:	02671713          	slli	a4,a4,0x26
    80001484:	0f57b823          	sd	s5,240(a5)
    80001488:	0ee7b423          	sd	a4,232(a5)
    8000148c:	06813083          	ld	ra,104(sp)
    80001490:	06013403          	ld	s0,96(sp)
    80001494:	05013903          	ld	s2,80(sp)
    80001498:	04813983          	ld	s3,72(sp)
    8000149c:	04013a03          	ld	s4,64(sp)
    800014a0:	03813a83          	ld	s5,56(sp)
    800014a4:	03013b03          	ld	s6,48(sp)
    800014a8:	02813b83          	ld	s7,40(sp)
    800014ac:	02013c03          	ld	s8,32(sp)
    800014b0:	01813c83          	ld	s9,24(sp)
    800014b4:	01013d03          	ld	s10,16(sp)
    800014b8:	00048513          	mv	a0,s1
    800014bc:	05813483          	ld	s1,88(sp)
    800014c0:	09010113          	addi	sp,sp,144
    800014c4:	00008067          	ret
    800014c8:	ff860613          	addi	a2,a2,-8
    800014cc:	00168693          	addi	a3,a3,1
    800014d0:	00063023          	sd	zero,0(a2)
    800014d4:	f45ff06f          	j	80001418 <create+0x15c>
    800014d8:	00e7b023          	sd	a4,0(a5)
    800014dc:	f75ff06f          	j	80001450 <create+0x194>
    800014e0:	fff00493          	li	s1,-1
    800014e4:	fa9ff06f          	j	8000148c <create+0x1d0>
    800014e8:	07810793          	addi	a5,sp,120
    800014ec:	00f13423          	sd	a5,8(sp)
    800014f0:	f75ff06f          	j	80001464 <create+0x1a8>

00000000800014f4 <dispatch>:
    800014f4:	06a05063          	blez	a0,80001554 <dispatch+0x60>
    800014f8:	ff010113          	addi	sp,sp,-16
    800014fc:	00813023          	sd	s0,0(sp)
    80001500:	00113423          	sd	ra,8(sp)
    80001504:	00900713          	li	a4,9
    80001508:	00060413          	mv	s0,a2
    8000150c:	02e51663          	bne	a0,a4,80001538 <dispatch+0x44>
    80001510:	00468793          	addi	a5,a3,4
    80001514:	14179073          	csrw	sepc,a5
    80001518:	03862503          	lw	a0,56(a2)
    8000151c:	00060593          	mv	a1,a2
    80001520:	41c010ef          	jal	ra,8000293c <syscall_dispatch>
    80001524:	00a43023          	sd	a0,0(s0)
    80001528:	00813083          	ld	ra,8(sp)
    8000152c:	00013403          	ld	s0,0(sp)
    80001530:	01010113          	addi	sp,sp,16
    80001534:	00008067          	ret
    80001538:	00058613          	mv	a2,a1
    8000153c:	00050593          	mv	a1,a0
    80001540:	00040513          	mv	a0,s0
    80001544:	00013403          	ld	s0,0(sp)
    80001548:	00813083          	ld	ra,8(sp)
    8000154c:	01010113          	addi	sp,sp,16
    80001550:	4580106f          	j	800029a8 <xtrap>
    80001554:	00008067          	ret

0000000080001558 <bswap32>:
    80001558:	0185571b          	srliw	a4,a0,0x18
    8000155c:	0185179b          	slliw	a5,a0,0x18
    80001560:	00e7e7b3          	or	a5,a5,a4
    80001564:	00ff06b7          	lui	a3,0xff0
    80001568:	0085171b          	slliw	a4,a0,0x8
    8000156c:	00d77733          	and	a4,a4,a3
    80001570:	00e7e7b3          	or	a5,a5,a4
    80001574:	00010737          	lui	a4,0x10
    80001578:	f0070713          	addi	a4,a4,-256 # ff00 <_binary_data_elf_size+0xeae0>
    8000157c:	0085551b          	srliw	a0,a0,0x8
    80001580:	00e57533          	and	a0,a0,a4
    80001584:	00a7e533          	or	a0,a5,a0
    80001588:	0005051b          	sext.w	a0,a0
    8000158c:	00008067          	ret

0000000080001590 <parseRsvMap>:
    80001590:	fe010113          	addi	sp,sp,-32
    80001594:	00813823          	sd	s0,16(sp)
    80001598:	00050413          	mv	s0,a0
    8000159c:	00002517          	auipc	a0,0x2
    800015a0:	e3450513          	addi	a0,a0,-460 # 800033d0 <strrchr+0x1c8>
    800015a4:	00913423          	sd	s1,8(sp)
    800015a8:	01213023          	sd	s2,0(sp)
    800015ac:	00113c23          	sd	ra,24(sp)
    800015b0:	00002497          	auipc	s1,0x2
    800015b4:	e4048493          	addi	s1,s1,-448 # 800033f0 <strrchr+0x1e8>
    800015b8:	6e0000ef          	jal	ra,80001c98 <kprintf>
    800015bc:	00002917          	auipc	s2,0x2
    800015c0:	e4c90913          	addi	s2,s2,-436 # 80003408 <strrchr+0x200>
    800015c4:	00043583          	ld	a1,0(s0)
    800015c8:	00058663          	beqz	a1,800015d4 <parseRsvMap+0x44>
    800015cc:	00843783          	ld	a5,8(s0)
    800015d0:	02079063          	bnez	a5,800015f0 <parseRsvMap+0x60>
    800015d4:	01813083          	ld	ra,24(sp)
    800015d8:	01013403          	ld	s0,16(sp)
    800015dc:	00813483          	ld	s1,8(sp)
    800015e0:	00013903          	ld	s2,0(sp)
    800015e4:	00100513          	li	a0,1
    800015e8:	02010113          	addi	sp,sp,32
    800015ec:	00008067          	ret
    800015f0:	00048513          	mv	a0,s1
    800015f4:	6a4000ef          	jal	ra,80001c98 <kprintf>
    800015f8:	00843583          	ld	a1,8(s0)
    800015fc:	00090513          	mv	a0,s2
    80001600:	01040413          	addi	s0,s0,16
    80001604:	694000ef          	jal	ra,80001c98 <kprintf>
    80001608:	fbdff06f          	j	800015c4 <parseRsvMap+0x34>

000000008000160c <c2ioff>:
    8000160c:	00357793          	andi	a5,a0,3
    80001610:	00f037b3          	snez	a5,a5
    80001614:	0025551b          	srliw	a0,a0,0x2
    80001618:	00a7853b          	addw	a0,a5,a0
    8000161c:	00008067          	ret

0000000080001620 <dtb_read_long>:
    80001620:	ff010113          	addi	sp,sp,-16
    80001624:	00113423          	sd	ra,8(sp)
    80001628:	00452503          	lw	a0,4(a0)
    8000162c:	f2dff0ef          	jal	ra,80001558 <bswap32>
    80001630:	00813083          	ld	ra,8(sp)
    80001634:	02051513          	slli	a0,a0,0x20
    80001638:	02055513          	srli	a0,a0,0x20
    8000163c:	01010113          	addi	sp,sp,16
    80001640:	00008067          	ret

0000000080001644 <memoryHandler>:
    80001644:	fe010113          	addi	sp,sp,-32
    80001648:	00058513          	mv	a0,a1
    8000164c:	00002597          	auipc	a1,0x2
    80001650:	dcc58593          	addi	a1,a1,-564 # 80003418 <strrchr+0x210>
    80001654:	00813823          	sd	s0,16(sp)
    80001658:	00913423          	sd	s1,8(sp)
    8000165c:	00113c23          	sd	ra,24(sp)
    80001660:	00060493          	mv	s1,a2
    80001664:	00068413          	mv	s0,a3
    80001668:	2c5010ef          	jal	ra,8000312c <strcmp>
    8000166c:	02051a63          	bnez	a0,800016a0 <memoryHandler+0x5c>
    80001670:	01000793          	li	a5,16
    80001674:	02f41663          	bne	s0,a5,800016a0 <memoryHandler+0x5c>
    80001678:	00048513          	mv	a0,s1
    8000167c:	fa5ff0ef          	jal	ra,80001620 <dtb_read_long>
    80001680:	00050413          	mv	s0,a0
    80001684:	00848513          	addi	a0,s1,8
    80001688:	f99ff0ef          	jal	ra,80001620 <dtb_read_long>
    8000168c:	00006797          	auipc	a5,0x6
    80001690:	98c78793          	addi	a5,a5,-1652 # 80007018 <platform>
    80001694:	0487b823          	sd	s0,80(a5)
    80001698:	00a40433          	add	s0,s0,a0
    8000169c:	0487bc23          	sd	s0,88(a5)
    800016a0:	01813083          	ld	ra,24(sp)
    800016a4:	01013403          	ld	s0,16(sp)
    800016a8:	00813483          	ld	s1,8(sp)
    800016ac:	00100513          	li	a0,1
    800016b0:	02010113          	addi	sp,sp,32
    800016b4:	00008067          	ret

00000000800016b8 <uartHandler>:
    800016b8:	fe010113          	addi	sp,sp,-32
    800016bc:	00913423          	sd	s1,8(sp)
    800016c0:	00058493          	mv	s1,a1
    800016c4:	00048513          	mv	a0,s1
    800016c8:	00002597          	auipc	a1,0x2
    800016cc:	d5058593          	addi	a1,a1,-688 # 80003418 <strrchr+0x210>
    800016d0:	00813823          	sd	s0,16(sp)
    800016d4:	00113c23          	sd	ra,24(sp)
    800016d8:	00060413          	mv	s0,a2
    800016dc:	251010ef          	jal	ra,8000312c <strcmp>
    800016e0:	02051663          	bnez	a0,8000170c <uartHandler+0x54>
    800016e4:	00040513          	mv	a0,s0
    800016e8:	f39ff0ef          	jal	ra,80001620 <dtb_read_long>
    800016ec:	00006797          	auipc	a5,0x6
    800016f0:	98a7ba23          	sd	a0,-1644(a5) # 80007080 <platform+0x68>
    800016f4:	01813083          	ld	ra,24(sp)
    800016f8:	01013403          	ld	s0,16(sp)
    800016fc:	00813483          	ld	s1,8(sp)
    80001700:	00100513          	li	a0,1
    80001704:	02010113          	addi	sp,sp,32
    80001708:	00008067          	ret
    8000170c:	00002597          	auipc	a1,0x2
    80001710:	d1458593          	addi	a1,a1,-748 # 80003420 <strrchr+0x218>
    80001714:	00048513          	mv	a0,s1
    80001718:	215010ef          	jal	ra,8000312c <strcmp>
    8000171c:	fc051ce3          	bnez	a0,800016f4 <uartHandler+0x3c>
    80001720:	00046783          	lwu	a5,0(s0)
    80001724:	00006717          	auipc	a4,0x6
    80001728:	96f73223          	sd	a5,-1692(a4) # 80007088 <platform+0x70>
    8000172c:	fc9ff06f          	j	800016f4 <uartHandler+0x3c>

0000000080001730 <baseHandler>:
    80001730:	fe010113          	addi	sp,sp,-32
    80001734:	00058513          	mv	a0,a1
    80001738:	00002597          	auipc	a1,0x2
    8000173c:	cf858593          	addi	a1,a1,-776 # 80003430 <strrchr+0x228>
    80001740:	00813823          	sd	s0,16(sp)
    80001744:	00113c23          	sd	ra,24(sp)
    80001748:	00913423          	sd	s1,8(sp)
    8000174c:	00060413          	mv	s0,a2
    80001750:	1dd010ef          	jal	ra,8000312c <strcmp>
    80001754:	04051063          	bnez	a0,80001794 <baseHandler+0x64>
    80001758:	02c00593          	li	a1,44
    8000175c:	00040513          	mv	a0,s0
    80001760:	2a9010ef          	jal	ra,80003208 <strrchr>
    80001764:	00050493          	mv	s1,a0
    80001768:	04050263          	beqz	a0,800017ac <baseHandler+0x7c>
    8000176c:	40850633          	sub	a2,a0,s0
    80001770:	00040593          	mv	a1,s0
    80001774:	00006517          	auipc	a0,0x6
    80001778:	8b650513          	addi	a0,a0,-1866 # 8000702a <platform+0x12>
    8000177c:	22d010ef          	jal	ra,800031a8 <strncpy>
    80001780:	01200613          	li	a2,18
    80001784:	00148593          	addi	a1,s1,1
    80001788:	00006517          	auipc	a0,0x6
    8000178c:	89050513          	addi	a0,a0,-1904 # 80007018 <platform>
    80001790:	219010ef          	jal	ra,800031a8 <strncpy>
    80001794:	01813083          	ld	ra,24(sp)
    80001798:	01013403          	ld	s0,16(sp)
    8000179c:	00813483          	ld	s1,8(sp)
    800017a0:	00100513          	li	a0,1
    800017a4:	02010113          	addi	sp,sp,32
    800017a8:	00008067          	ret
    800017ac:	01200613          	li	a2,18
    800017b0:	00040593          	mv	a1,s0
    800017b4:	fd5ff06f          	j	80001788 <baseHandler+0x58>

00000000800017b8 <handleProp>:
    800017b8:	fd010113          	addi	sp,sp,-48
    800017bc:	00913c23          	sd	s1,24(sp)
    800017c0:	01213823          	sd	s2,16(sp)
    800017c4:	00058493          	mv	s1,a1
    800017c8:	00060913          	mv	s2,a2
    800017cc:	00002597          	auipc	a1,0x2
    800017d0:	c6c58593          	addi	a1,a1,-916 # 80003438 <strrchr+0x230>
    800017d4:	00700613          	li	a2,7
    800017d8:	02813023          	sd	s0,32(sp)
    800017dc:	00d13423          	sd	a3,8(sp)
    800017e0:	02113423          	sd	ra,40(sp)
    800017e4:	00050413          	mv	s0,a0
    800017e8:	189010ef          	jal	ra,80003170 <strncmp>
    800017ec:	00813683          	ld	a3,8(sp)
    800017f0:	02051463          	bnez	a0,80001818 <handleProp+0x60>
    800017f4:	00040513          	mv	a0,s0
    800017f8:	02013403          	ld	s0,32(sp)
    800017fc:	02813083          	ld	ra,40(sp)
    80001800:	00090613          	mv	a2,s2
    80001804:	00048593          	mv	a1,s1
    80001808:	01013903          	ld	s2,16(sp)
    8000180c:	01813483          	ld	s1,24(sp)
    80001810:	03010113          	addi	sp,sp,48
    80001814:	e31ff06f          	j	80001644 <memoryHandler>
    80001818:	00500613          	li	a2,5
    8000181c:	00002597          	auipc	a1,0x2
    80001820:	c2458593          	addi	a1,a1,-988 # 80003440 <strrchr+0x238>
    80001824:	00040513          	mv	a0,s0
    80001828:	00d13423          	sd	a3,8(sp)
    8000182c:	145010ef          	jal	ra,80003170 <strncmp>
    80001830:	00813683          	ld	a3,8(sp)
    80001834:	02051463          	bnez	a0,8000185c <handleProp+0xa4>
    80001838:	00040513          	mv	a0,s0
    8000183c:	02013403          	ld	s0,32(sp)
    80001840:	02813083          	ld	ra,40(sp)
    80001844:	00090613          	mv	a2,s2
    80001848:	00048593          	mv	a1,s1
    8000184c:	01013903          	ld	s2,16(sp)
    80001850:	01813483          	ld	s1,24(sp)
    80001854:	03010113          	addi	sp,sp,48
    80001858:	e61ff06f          	j	800016b8 <uartHandler>
    8000185c:	01200593          	li	a1,18
    80001860:	00040513          	mv	a0,s0
    80001864:	00d13423          	sd	a3,8(sp)
    80001868:	17d010ef          	jal	ra,800031e4 <strnlen>
    8000186c:	02051663          	bnez	a0,80001898 <handleProp+0xe0>
    80001870:	00040513          	mv	a0,s0
    80001874:	02013403          	ld	s0,32(sp)
    80001878:	00813683          	ld	a3,8(sp)
    8000187c:	02813083          	ld	ra,40(sp)
    80001880:	00090613          	mv	a2,s2
    80001884:	00048593          	mv	a1,s1
    80001888:	01013903          	ld	s2,16(sp)
    8000188c:	01813483          	ld	s1,24(sp)
    80001890:	03010113          	addi	sp,sp,48
    80001894:	e9dff06f          	j	80001730 <baseHandler>
    80001898:	02813083          	ld	ra,40(sp)
    8000189c:	02013403          	ld	s0,32(sp)
    800018a0:	01813483          	ld	s1,24(sp)
    800018a4:	01013903          	ld	s2,16(sp)
    800018a8:	fff00513          	li	a0,-1
    800018ac:	03010113          	addi	sp,sp,48
    800018b0:	00008067          	ret

00000000800018b4 <parseDtbNodes>:
    800018b4:	fa010113          	addi	sp,sp,-96
    800018b8:	04113c23          	sd	ra,88(sp)
    800018bc:	04813823          	sd	s0,80(sp)
    800018c0:	04913423          	sd	s1,72(sp)
    800018c4:	05213023          	sd	s2,64(sp)
    800018c8:	03313c23          	sd	s3,56(sp)
    800018cc:	03413823          	sd	s4,48(sp)
    800018d0:	03513423          	sd	s5,40(sp)
    800018d4:	03613023          	sd	s6,32(sp)
    800018d8:	01713c23          	sd	s7,24(sp)
    800018dc:	01813823          	sd	s8,16(sp)
    800018e0:	00050493          	mv	s1,a0
    800018e4:	00852503          	lw	a0,8(a0)
    800018e8:	00000993          	li	s3,0
    800018ec:	00000413          	li	s0,0
    800018f0:	c69ff0ef          	jal	ra,80001558 <bswap32>
    800018f4:	0095093b          	addw	s2,a0,s1
    800018f8:	00c4a503          	lw	a0,12(s1)
    800018fc:	02091913          	slli	s2,s2,0x20
    80001900:	02095913          	srli	s2,s2,0x20
    80001904:	c55ff0ef          	jal	ra,80001558 <bswap32>
    80001908:	02051a13          	slli	s4,a0,0x20
    8000190c:	020a5a13          	srli	s4,s4,0x20
    80001910:	00800b13          	li	s6,8
    80001914:	00002a97          	auipc	s5,0x2
    80001918:	b80a8a93          	addi	s5,s5,-1152 # 80003494 <strrchr+0x28c>
    8000191c:	02041793          	slli	a5,s0,0x20
    80001920:	01e7db93          	srli	s7,a5,0x1e
    80001924:	01790bb3          	add	s7,s2,s7
    80001928:	000ba503          	lw	a0,0(s7)
    8000192c:	c2dff0ef          	jal	ra,80001558 <bswap32>
    80001930:	fff5079b          	addiw	a5,a0,-1
    80001934:	0007871b          	sext.w	a4,a5
    80001938:	0005059b          	sext.w	a1,a0
    8000193c:	0aeb6063          	bltu	s6,a4,800019dc <parseDtbNodes+0x128>
    80001940:	02079713          	slli	a4,a5,0x20
    80001944:	01e75793          	srli	a5,a4,0x1e
    80001948:	015787b3          	add	a5,a5,s5
    8000194c:	0007a783          	lw	a5,0(a5)
    80001950:	015787b3          	add	a5,a5,s5
    80001954:	00078067          	jr	a5
    80001958:	004b8993          	addi	s3,s7,4
    8000195c:	00098513          	mv	a0,s3
    80001960:	7f0010ef          	jal	ra,80003150 <strlen>
    80001964:	0015051b          	addiw	a0,a0,1
    80001968:	ca5ff0ef          	jal	ra,8000160c <c2ioff>
    8000196c:	0014041b          	addiw	s0,s0,1
    80001970:	00a4043b          	addw	s0,s0,a0
    80001974:	fa9ff06f          	j	8000191c <parseDtbNodes+0x68>
    80001978:	004ba503          	lw	a0,4(s7)
    8000197c:	0014041b          	addiw	s0,s0,1
    80001980:	bd9ff0ef          	jal	ra,80001558 <bswap32>
    80001984:	00050c1b          	sext.w	s8,a0
    80001988:	008ba503          	lw	a0,8(s7)
    8000198c:	bcdff0ef          	jal	ra,80001558 <bswap32>
    80001990:	02051593          	slli	a1,a0,0x20
    80001994:	0205d593          	srli	a1,a1,0x20
    80001998:	014585b3          	add	a1,a1,s4
    8000199c:	00b485b3          	add	a1,s1,a1
    800019a0:	008c051b          	addiw	a0,s8,8
    800019a4:	00b13423          	sd	a1,8(sp)
    800019a8:	c65ff0ef          	jal	ra,8000160c <c2ioff>
    800019ac:	00813583          	ld	a1,8(sp)
    800019b0:	00a4043b          	addw	s0,s0,a0
    800019b4:	000c0693          	mv	a3,s8
    800019b8:	00cb8613          	addi	a2,s7,12
    800019bc:	00098513          	mv	a0,s3
    800019c0:	df9ff0ef          	jal	ra,800017b8 <handleProp>
    800019c4:	f59ff06f          	j	8000191c <parseDtbNodes+0x68>
    800019c8:	0014041b          	addiw	s0,s0,1
    800019cc:	00000993          	li	s3,0
    800019d0:	f4dff06f          	j	8000191c <parseDtbNodes+0x68>
    800019d4:	0014041b          	addiw	s0,s0,1
    800019d8:	f45ff06f          	j	8000191c <parseDtbNodes+0x68>
    800019dc:	00002517          	auipc	a0,0x2
    800019e0:	a6c50513          	addi	a0,a0,-1428 # 80003448 <strrchr+0x240>
    800019e4:	2b4000ef          	jal	ra,80001c98 <kprintf>
    800019e8:	fff00513          	li	a0,-1
    800019ec:	05813083          	ld	ra,88(sp)
    800019f0:	05013403          	ld	s0,80(sp)
    800019f4:	04813483          	ld	s1,72(sp)
    800019f8:	04013903          	ld	s2,64(sp)
    800019fc:	03813983          	ld	s3,56(sp)
    80001a00:	03013a03          	ld	s4,48(sp)
    80001a04:	02813a83          	ld	s5,40(sp)
    80001a08:	02013b03          	ld	s6,32(sp)
    80001a0c:	01813b83          	ld	s7,24(sp)
    80001a10:	01013c03          	ld	s8,16(sp)
    80001a14:	06010113          	addi	sp,sp,96
    80001a18:	00008067          	ret
    80001a1c:	00100513          	li	a0,1
    80001a20:	fcdff06f          	j	800019ec <parseDtbNodes+0x138>

0000000080001a24 <parseDtb>:
    80001a24:	ff010113          	addi	sp,sp,-16
    80001a28:	00813023          	sd	s0,0(sp)
    80001a2c:	00113423          	sd	ra,8(sp)
    80001a30:	0000a417          	auipc	s0,0xa
    80001a34:	19843403          	ld	s0,408(s0) # 8000bbc8 <dtb_addr>
    80001a38:	00042503          	lw	a0,0(s0)
    80001a3c:	b1dff0ef          	jal	ra,80001558 <bswap32>
    80001a40:	d00e07b7          	lui	a5,0xd00e0
    80001a44:	0005051b          	sext.w	a0,a0
    80001a48:	eed78793          	addi	a5,a5,-275 # ffffffffd00dfeed <_end+0xffffffff500d3eed>
    80001a4c:	02f50263          	beq	a0,a5,80001a70 <parseDtb+0x4c>
    80001a50:	00002517          	auipc	a0,0x2
    80001a54:	a2850513          	addi	a0,a0,-1496 # 80003478 <strrchr+0x270>
    80001a58:	240000ef          	jal	ra,80001c98 <kprintf>
    80001a5c:	fff00513          	li	a0,-1
    80001a60:	00813083          	ld	ra,8(sp)
    80001a64:	00013403          	ld	s0,0(sp)
    80001a68:	01010113          	addi	sp,sp,16
    80001a6c:	00008067          	ret
    80001a70:	01042503          	lw	a0,16(s0)
    80001a74:	ae5ff0ef          	jal	ra,80001558 <bswap32>
    80001a78:	02051513          	slli	a0,a0,0x20
    80001a7c:	02055513          	srli	a0,a0,0x20
    80001a80:	00a40533          	add	a0,s0,a0
    80001a84:	b0dff0ef          	jal	ra,80001590 <parseRsvMap>
    80001a88:	00040513          	mv	a0,s0
    80001a8c:	e29ff0ef          	jal	ra,800018b4 <parseDtbNodes>
    80001a90:	00100513          	li	a0,1
    80001a94:	fcdff06f          	j	80001a60 <parseDtb+0x3c>

0000000080001a98 <vmcreate>:
    80001a98:	fd010113          	addi	sp,sp,-48
    80001a9c:	02113423          	sd	ra,40(sp)
    80001aa0:	02813023          	sd	s0,32(sp)
    80001aa4:	00913c23          	sd	s1,24(sp)
    80001aa8:	01213823          	sd	s2,16(sp)
    80001aac:	01313423          	sd	s3,8(sp)
    80001ab0:	01413023          	sd	s4,0(sp)
    80001ab4:	00050913          	mv	s2,a0
    80001ab8:	0dd000ef          	jal	ra,80002394 <pgalloc>
    80001abc:	01600713          	li	a4,22
    80001ac0:	10000693          	li	a3,256
    80001ac4:	10000637          	lui	a2,0x10000
    80001ac8:	100005b7          	lui	a1,0x10000
    80001acc:	00050413          	mv	s0,a0
    80001ad0:	25d000ef          	jal	ra,8000252c <mapAddress>
    80001ad4:	00002497          	auipc	s1,0x2
    80001ad8:	52c48493          	addi	s1,s1,1324 # 80004000 <_ctxsws>
    80001adc:	ffffe617          	auipc	a2,0xffffe
    80001ae0:	52460613          	addi	a2,a2,1316 # 80000000 <_start>
    80001ae4:	40c486b3          	sub	a3,s1,a2
    80001ae8:	00060593          	mv	a1,a2
    80001aec:	01a00713          	li	a4,26
    80001af0:	00040513          	mv	a0,s0
    80001af4:	239000ef          	jal	ra,8000252c <mapAddress>
    80001af8:	00003a17          	auipc	s4,0x3
    80001afc:	508a0a13          	addi	s4,s4,1288 # 80005000 <_ctxswe>
    80001b00:	20001637          	lui	a2,0x20001
    80001b04:	409a06b3          	sub	a3,s4,s1
    80001b08:	00048593          	mv	a1,s1
    80001b0c:	02a00713          	li	a4,42
    80001b10:	00261613          	slli	a2,a2,0x2
    80001b14:	00040513          	mv	a0,s0
    80001b18:	215000ef          	jal	ra,8000252c <mapAddress>
    80001b1c:	00004997          	auipc	s3,0x4
    80001b20:	4e498993          	addi	s3,s3,1252 # 80006000 <trap_names>
    80001b24:	414986b3          	sub	a3,s3,s4
    80001b28:	000a0613          	mv	a2,s4
    80001b2c:	000a0593          	mv	a1,s4
    80001b30:	01a00713          	li	a4,26
    80001b34:	00040513          	mv	a0,s0
    80001b38:	1f5000ef          	jal	ra,8000252c <mapAddress>
    80001b3c:	0000a697          	auipc	a3,0xa
    80001b40:	09c6b683          	ld	a3,156(a3) # 8000bbd8 <memheap>
    80001b44:	413686b3          	sub	a3,a3,s3
    80001b48:	00098613          	mv	a2,s3
    80001b4c:	01600713          	li	a4,22
    80001b50:	00098593          	mv	a1,s3
    80001b54:	00040513          	mv	a0,s0
    80001b58:	1d5000ef          	jal	ra,8000252c <mapAddress>
    80001b5c:	00002517          	auipc	a0,0x2
    80001b60:	95c50513          	addi	a0,a0,-1700 # 800034b8 <strrchr+0x2b0>
    80001b64:	134000ef          	jal	ra,80001c98 <kprintf>
    80001b68:	00048593          	mv	a1,s1
    80001b6c:	00002517          	auipc	a0,0x2
    80001b70:	96450513          	addi	a0,a0,-1692 # 800034d0 <strrchr+0x2c8>
    80001b74:	124000ef          	jal	ra,80001c98 <kprintf>
    80001b78:	04000637          	lui	a2,0x4000
    80001b7c:	fff60613          	addi	a2,a2,-1 # 3ffffff <_binary_data_elf_size+0x3ffebdf>
    80001b80:	00090593          	mv	a1,s2
    80001b84:	00040513          	mv	a0,s0
    80001b88:	01600693          	li	a3,22
    80001b8c:	00c61613          	slli	a2,a2,0xc
    80001b90:	111000ef          	jal	ra,800024a0 <mapPage>
    80001b94:	02813083          	ld	ra,40(sp)
    80001b98:	00040513          	mv	a0,s0
    80001b9c:	02013403          	ld	s0,32(sp)
    80001ba0:	01813483          	ld	s1,24(sp)
    80001ba4:	01013903          	ld	s2,16(sp)
    80001ba8:	00813983          	ld	s3,8(sp)
    80001bac:	00013a03          	ld	s4,0(sp)
    80001bb0:	03010113          	addi	sp,sp,48
    80001bb4:	00008067          	ret

0000000080001bb8 <kill>:
    80001bb8:	fe010113          	addi	sp,sp,-32
    80001bbc:	00913423          	sd	s1,8(sp)
    80001bc0:	00113c23          	sd	ra,24(sp)
    80001bc4:	00813823          	sd	s0,16(sp)
    80001bc8:	00050493          	mv	s1,a0
    80001bcc:	664030ef          	jal	ra,80005230 <gethartid>
    80001bd0:	03100793          	li	a5,49
    80001bd4:	0897e663          	bltu	a5,s1,80001c60 <kill+0xa8>
    80001bd8:	15000793          	li	a5,336
    80001bdc:	02f487b3          	mul	a5,s1,a5
    80001be0:	00005417          	auipc	s0,0x5
    80001be4:	4d840413          	addi	s0,s0,1240 # 800070b8 <proctab>
    80001be8:	0005071b          	sext.w	a4,a0
    80001bec:	fff00513          	li	a0,-1
    80001bf0:	00f40433          	add	s0,s0,a5
    80001bf4:	00042783          	lw	a5,0(s0)
    80001bf8:	04078463          	beqz	a5,80001c40 <kill+0x88>
    80001bfc:	04048263          	beqz	s1,80001c40 <kill+0x88>
    80001c00:	01442683          	lw	a3,20(s0)
    80001c04:	02e69e63          	bne	a3,a4,80001c40 <kill+0x88>
    80001c08:	0000a697          	auipc	a3,0xa
    80001c0c:	fdc68693          	addi	a3,a3,-36 # 8000bbe4 <numproc>
    80001c10:	0006a703          	lw	a4,0(a3)
    80001c14:	fff7071b          	addiw	a4,a4,-1
    80001c18:	00e6a023          	sw	a4,0(a3)
    80001c1c:	00100713          	li	a4,1
    80001c20:	00e78a63          	beq	a5,a4,80001c34 <kill+0x7c>
    80001c24:	00300713          	li	a4,3
    80001c28:	02e78663          	beq	a5,a4,80001c54 <kill+0x9c>
    80001c2c:	00042023          	sw	zero,0(s0)
    80001c30:	00c0006f          	j	80001c3c <kill+0x84>
    80001c34:	00042023          	sw	zero,0(s0)
    80001c38:	3e4000ef          	jal	ra,8000201c <resched>
    80001c3c:	00100513          	li	a0,1
    80001c40:	01813083          	ld	ra,24(sp)
    80001c44:	01013403          	ld	s0,16(sp)
    80001c48:	00813483          	ld	s1,8(sp)
    80001c4c:	02010113          	addi	sp,sp,32
    80001c50:	00008067          	ret
    80001c54:	00048513          	mv	a0,s1
    80001c58:	190000ef          	jal	ra,80001de8 <remove>
    80001c5c:	fd1ff06f          	j	80001c2c <kill+0x74>
    80001c60:	fff00513          	li	a0,-1
    80001c64:	fddff06f          	j	80001c40 <kill+0x88>

0000000080001c68 <kputc>:
    80001c68:	10000737          	lui	a4,0x10000
    80001c6c:	00574783          	lbu	a5,5(a4) # 10000005 <_binary_data_elf_size+0xfffebe5>
    80001c70:	0407f793          	andi	a5,a5,64
    80001c74:	fe078ce3          	beqz	a5,80001c6c <kputc+0x4>
    80001c78:	00a70023          	sb	a0,0(a4)
    80001c7c:	00008067          	ret

0000000080001c80 <kgetc>:
    80001c80:	10000737          	lui	a4,0x10000
    80001c84:	00574783          	lbu	a5,5(a4) # 10000005 <_binary_data_elf_size+0xfffebe5>
    80001c88:	0017f793          	andi	a5,a5,1
    80001c8c:	fe078ce3          	beqz	a5,80001c84 <kgetc+0x4>
    80001c90:	00074503          	lbu	a0,0(a4)
    80001c94:	00008067          	ret

0000000080001c98 <kprintf>:
    80001c98:	f9010113          	addi	sp,sp,-112
    80001c9c:	02113423          	sd	ra,40(sp)
    80001ca0:	02813023          	sd	s0,32(sp)
    80001ca4:	00913c23          	sd	s1,24(sp)
    80001ca8:	04e13823          	sd	a4,80(sp)
    80001cac:	07013023          	sd	a6,96(sp)
    80001cb0:	07113423          	sd	a7,104(sp)
    80001cb4:	02b13c23          	sd	a1,56(sp)
    80001cb8:	04c13023          	sd	a2,64(sp)
    80001cbc:	04d13423          	sd	a3,72(sp)
    80001cc0:	04f13c23          	sd	a5,88(sp)
    80001cc4:	0000a497          	auipc	s1,0xa
    80001cc8:	efc48493          	addi	s1,s1,-260 # 8000bbc0 <serial_lock>
    80001ccc:	00050413          	mv	s0,a0
    80001cd0:	0004a503          	lw	a0,0(s1)
    80001cd4:	03810793          	addi	a5,sp,56
    80001cd8:	00f13423          	sd	a5,8(sp)
    80001cdc:	33d000ef          	jal	ra,80002818 <lock_acquire>
    80001ce0:	00813583          	ld	a1,8(sp)
    80001ce4:	00000693          	li	a3,0
    80001ce8:	00000617          	auipc	a2,0x0
    80001cec:	f8060613          	addi	a2,a2,-128 # 80001c68 <kputc>
    80001cf0:	00040513          	mv	a0,s0
    80001cf4:	649000ef          	jal	ra,80002b3c <_doprnt>
    80001cf8:	00050413          	mv	s0,a0
    80001cfc:	0004a503          	lw	a0,0(s1)
    80001d00:	38d000ef          	jal	ra,8000288c <lock_release>
    80001d04:	02813083          	ld	ra,40(sp)
    80001d08:	00040513          	mv	a0,s0
    80001d0c:	02013403          	ld	s0,32(sp)
    80001d10:	01813483          	ld	s1,24(sp)
    80001d14:	07010113          	addi	sp,sp,112
    80001d18:	00008067          	ret

0000000080001d1c <platforminit>:
    80001d1c:	ff010113          	addi	sp,sp,-16
    80001d20:	00113423          	sd	ra,8(sp)
    80001d24:	269000ef          	jal	ra,8000278c <lock_create>
    80001d28:	0000a797          	auipc	a5,0xa
    80001d2c:	e8a7ac23          	sw	a0,-360(a5) # 8000bbc0 <serial_lock>
    80001d30:	cf5ff0ef          	jal	ra,80001a24 <parseDtb>
    80001d34:	100007b7          	lui	a5,0x10000
    80001d38:	000780a3          	sb	zero,1(a5) # 10000001 <_binary_data_elf_size+0xfffebe1>
    80001d3c:	00600713          	li	a4,6
    80001d40:	00e78123          	sb	a4,2(a5)
    80001d44:	00100713          	li	a4,1
    80001d48:	00e78123          	sb	a4,2(a5)
    80001d4c:	00813083          	ld	ra,8(sp)
    80001d50:	00100513          	li	a0,1
    80001d54:	01010113          	addi	sp,sp,16
    80001d58:	00008067          	ret

0000000080001d5c <enqueue>:
    80001d5c:	00010737          	lui	a4,0x10
    80001d60:	fff70713          	addi	a4,a4,-1 # ffff <_binary_data_elf_size+0xebdf>
    80001d64:	00e5f7b3          	and	a5,a1,a4
    80001d68:	0105d593          	srli	a1,a1,0x10
    80001d6c:	00e5f5b3          	and	a1,a1,a4
    80001d70:	fff78713          	addi	a4,a5,-1
    80001d74:	06e59663          	bne	a1,a4,80001de0 <enqueue+0x84>
    80001d78:	04900713          	li	a4,73
    80001d7c:	06f76263          	bltu	a4,a5,80001de0 <enqueue+0x84>
    80001d80:	03100713          	li	a4,49
    80001d84:	04a76e63          	bltu	a4,a0,80001de0 <enqueue+0x84>
    80001d88:	15000693          	li	a3,336
    80001d8c:	02d506b3          	mul	a3,a0,a3
    80001d90:	00005717          	auipc	a4,0x5
    80001d94:	32870713          	addi	a4,a4,808 # 800070b8 <proctab>
    80001d98:	00d70733          	add	a4,a4,a3
    80001d9c:	00072703          	lw	a4,0(a4)
    80001da0:	04070063          	beqz	a4,80001de0 <enqueue+0x84>
    80001da4:	00009717          	auipc	a4,0x9
    80001da8:	4b470713          	addi	a4,a4,1204 # 8000b258 <queuetab>
    80001dac:	00351613          	slli	a2,a0,0x3
    80001db0:	00c70633          	add	a2,a4,a2
    80001db4:	0007879b          	sext.w	a5,a5
    80001db8:	00f62023          	sw	a5,0(a2)
    80001dbc:	00379793          	slli	a5,a5,0x3
    80001dc0:	00f707b3          	add	a5,a4,a5
    80001dc4:	0047a683          	lw	a3,4(a5)
    80001dc8:	00d62223          	sw	a3,4(a2)
    80001dcc:	00369693          	slli	a3,a3,0x3
    80001dd0:	00d70733          	add	a4,a4,a3
    80001dd4:	00a72023          	sw	a0,0(a4)
    80001dd8:	00a7a223          	sw	a0,4(a5)
    80001ddc:	00008067          	ret
    80001de0:	fff00513          	li	a0,-1
    80001de4:	00008067          	ret

0000000080001de8 <remove>:
    80001de8:	03100793          	li	a5,49
    80001dec:	04a7ea63          	bltu	a5,a0,80001e40 <remove+0x58>
    80001df0:	15000713          	li	a4,336
    80001df4:	02e50733          	mul	a4,a0,a4
    80001df8:	00005797          	auipc	a5,0x5
    80001dfc:	2c078793          	addi	a5,a5,704 # 800070b8 <proctab>
    80001e00:	00e787b3          	add	a5,a5,a4
    80001e04:	0007a783          	lw	a5,0(a5)
    80001e08:	02078c63          	beqz	a5,80001e40 <remove+0x58>
    80001e0c:	00009797          	auipc	a5,0x9
    80001e10:	44c78793          	addi	a5,a5,1100 # 8000b258 <queuetab>
    80001e14:	00351713          	slli	a4,a0,0x3
    80001e18:	00e78733          	add	a4,a5,a4
    80001e1c:	00472603          	lw	a2,4(a4)
    80001e20:	00072703          	lw	a4,0(a4)
    80001e24:	00361693          	slli	a3,a2,0x3
    80001e28:	00d786b3          	add	a3,a5,a3
    80001e2c:	00e6a023          	sw	a4,0(a3)
    80001e30:	00371713          	slli	a4,a4,0x3
    80001e34:	00e787b3          	add	a5,a5,a4
    80001e38:	00c7a223          	sw	a2,4(a5)
    80001e3c:	00008067          	ret
    80001e40:	fff00513          	li	a0,-1
    80001e44:	00008067          	ret

0000000080001e48 <dequeue>:
    80001e48:	000106b7          	lui	a3,0x10
    80001e4c:	fff68693          	addi	a3,a3,-1 # ffff <_binary_data_elf_size+0xebdf>
    80001e50:	fe010113          	addi	sp,sp,-32
    80001e54:	01055713          	srli	a4,a0,0x10
    80001e58:	00d57533          	and	a0,a0,a3
    80001e5c:	00d77733          	and	a4,a4,a3
    80001e60:	00113c23          	sd	ra,24(sp)
    80001e64:	00813823          	sd	s0,16(sp)
    80001e68:	00913423          	sd	s1,8(sp)
    80001e6c:	fff50693          	addi	a3,a0,-1
    80001e70:	00d71863          	bne	a4,a3,80001e80 <dequeue+0x38>
    80001e74:	0007079b          	sext.w	a5,a4
    80001e78:	04900713          	li	a4,73
    80001e7c:	02a77663          	bgeu	a4,a0,80001ea8 <dequeue+0x60>
    80001e80:	00001517          	auipc	a0,0x1
    80001e84:	66850513          	addi	a0,a0,1640 # 800034e8 <strrchr+0x2e0>
    80001e88:	e11ff0ef          	jal	ra,80001c98 <kprintf>
    80001e8c:	fff00413          	li	s0,-1
    80001e90:	01813083          	ld	ra,24(sp)
    80001e94:	00040513          	mv	a0,s0
    80001e98:	01013403          	ld	s0,16(sp)
    80001e9c:	00813483          	ld	s1,8(sp)
    80001ea0:	02010113          	addi	sp,sp,32
    80001ea4:	00008067          	ret
    80001ea8:	00009497          	auipc	s1,0x9
    80001eac:	3b048493          	addi	s1,s1,944 # 8000b258 <queuetab>
    80001eb0:	00379793          	slli	a5,a5,0x3
    80001eb4:	00f487b3          	add	a5,s1,a5
    80001eb8:	0007a403          	lw	s0,0(a5)
    80001ebc:	03100793          	li	a5,49
    80001ec0:	0287c063          	blt	a5,s0,80001ee0 <dequeue+0x98>
    80001ec4:	00040513          	mv	a0,s0
    80001ec8:	f21ff0ef          	jal	ra,80001de8 <remove>
    80001ecc:	00341793          	slli	a5,s0,0x3
    80001ed0:	00f484b3          	add	s1,s1,a5
    80001ed4:	0084a223          	sw	s0,4(s1)
    80001ed8:	0084a023          	sw	s0,0(s1)
    80001edc:	fb5ff06f          	j	80001e90 <dequeue+0x48>
    80001ee0:	ffe00413          	li	s0,-2
    80001ee4:	fadff06f          	j	80001e90 <dequeue+0x48>

0000000080001ee8 <newqueue>:
    80001ee8:	00004717          	auipc	a4,0x4
    80001eec:	19870713          	addi	a4,a4,408 # 80006080 <nextqueue>
    80001ef0:	00072783          	lw	a5,0(a4)
    80001ef4:	ffe00613          	li	a2,-2
    80001ef8:	0027869b          	addiw	a3,a5,2
    80001efc:	00d72023          	sw	a3,0(a4)
    80001f00:	00009717          	auipc	a4,0x9
    80001f04:	35870713          	addi	a4,a4,856 # 8000b258 <queuetab>
    80001f08:	00379693          	slli	a3,a5,0x3
    80001f0c:	0017851b          	addiw	a0,a5,1
    80001f10:	00d706b3          	add	a3,a4,a3
    80001f14:	00a6a023          	sw	a0,0(a3)
    80001f18:	00c6a223          	sw	a2,4(a3)
    80001f1c:	00351693          	slli	a3,a0,0x3
    80001f20:	00d70733          	add	a4,a4,a3
    80001f24:	03051513          	slli	a0,a0,0x30
    80001f28:	00f72223          	sw	a5,4(a4)
    80001f2c:	03055513          	srli	a0,a0,0x30
    80001f30:	0107979b          	slliw	a5,a5,0x10
    80001f34:	00f56533          	or	a0,a0,a5
    80001f38:	00c72023          	sw	a2,0(a4)
    80001f3c:	0005051b          	sext.w	a0,a0
    80001f40:	00008067          	ret

0000000080001f44 <ready>:
    80001f44:	fd010113          	addi	sp,sp,-48
    80001f48:	01313423          	sd	s3,8(sp)
    80001f4c:	02113423          	sd	ra,40(sp)
    80001f50:	02813023          	sd	s0,32(sp)
    80001f54:	00913c23          	sd	s1,24(sp)
    80001f58:	01213823          	sd	s2,16(sp)
    80001f5c:	01413023          	sd	s4,0(sp)
    80001f60:	03100793          	li	a5,49
    80001f64:	fff00993          	li	s3,-1
    80001f68:	08a7e863          	bltu	a5,a0,80001ff8 <ready+0xb4>
    80001f6c:	15000413          	li	s0,336
    80001f70:	02850433          	mul	s0,a0,s0
    80001f74:	00005917          	auipc	s2,0x5
    80001f78:	14490913          	addi	s2,s2,324 # 800070b8 <proctab>
    80001f7c:	00050493          	mv	s1,a0
    80001f80:	fff00993          	li	s3,-1
    80001f84:	00890433          	add	s0,s2,s0
    80001f88:	00042783          	lw	a5,0(s0)
    80001f8c:	06078663          	beqz	a5,80001ff8 <ready+0xb4>
    80001f90:	00058a13          	mv	s4,a1
    80001f94:	29c030ef          	jal	ra,80005230 <gethartid>
    80001f98:	00300793          	li	a5,3
    80001f9c:	00f42023          	sw	a5,0(s0)
    80001fa0:	01442783          	lw	a5,20(s0)
    80001fa4:	0005051b          	sext.w	a0,a0
    80001fa8:	01379463          	bne	a5,s3,80001fb0 <ready+0x6c>
    80001fac:	00a42a23          	sw	a0,20(s0)
    80001fb0:	15000793          	li	a5,336
    80001fb4:	02f487b3          	mul	a5,s1,a5
    80001fb8:	00300693          	li	a3,3
    80001fbc:	00048513          	mv	a0,s1
    80001fc0:	00f90933          	add	s2,s2,a5
    80001fc4:	01492783          	lw	a5,20(s2)
    80001fc8:	00492703          	lw	a4,4(s2)
    80001fcc:	02d787b3          	mul	a5,a5,a3
    80001fd0:	00e787b3          	add	a5,a5,a4
    80001fd4:	00379793          	slli	a5,a5,0x3
    80001fd8:	00005717          	auipc	a4,0x5
    80001fdc:	02870713          	addi	a4,a4,40 # 80007000 <readylist>
    80001fe0:	00f707b3          	add	a5,a4,a5
    80001fe4:	0007b583          	ld	a1,0(a5)
    80001fe8:	d75ff0ef          	jal	ra,80001d5c <enqueue>
    80001fec:	000a0463          	beqz	s4,80001ff4 <ready+0xb0>
    80001ff0:	02c000ef          	jal	ra,8000201c <resched>
    80001ff4:	00100993          	li	s3,1
    80001ff8:	02813083          	ld	ra,40(sp)
    80001ffc:	02013403          	ld	s0,32(sp)
    80002000:	01813483          	ld	s1,24(sp)
    80002004:	01013903          	ld	s2,16(sp)
    80002008:	00013a03          	ld	s4,0(sp)
    8000200c:	00098513          	mv	a0,s3
    80002010:	00813983          	ld	s3,8(sp)
    80002014:	03010113          	addi	sp,sp,48
    80002018:	00008067          	ret

000000008000201c <resched>:
    8000201c:	fb010113          	addi	sp,sp,-80
    80002020:	04813023          	sd	s0,64(sp)
    80002024:	02913c23          	sd	s1,56(sp)
    80002028:	03213823          	sd	s2,48(sp)
    8000202c:	03313423          	sd	s3,40(sp)
    80002030:	03413023          	sd	s4,32(sp)
    80002034:	01613823          	sd	s6,16(sp)
    80002038:	04113423          	sd	ra,72(sp)
    8000203c:	01513c23          	sd	s5,24(sp)
    80002040:	01713423          	sd	s7,8(sp)
    80002044:	1ec030ef          	jal	ra,80005230 <gethartid>
    80002048:	02051413          	slli	s0,a0,0x20
    8000204c:	02045413          	srli	s0,s0,0x20
    80002050:	0000a917          	auipc	s2,0xa
    80002054:	b9090913          	addi	s2,s2,-1136 # 8000bbe0 <currpid>
    80002058:	00241793          	slli	a5,s0,0x2
    8000205c:	0000ab17          	auipc	s6,0xa
    80002060:	b5cb0b13          	addi	s6,s6,-1188 # 8000bbb8 <promote_medium>
    80002064:	00341713          	slli	a4,s0,0x3
    80002068:	00f907b3          	add	a5,s2,a5
    8000206c:	00eb0733          	add	a4,s6,a4
    80002070:	0007a483          	lw	s1,0(a5)
    80002074:	00073783          	ld	a5,0(a4)
    80002078:	00005a17          	auipc	s4,0x5
    8000207c:	f88a0a13          	addi	s4,s4,-120 # 80007000 <readylist>
    80002080:	00009997          	auipc	s3,0x9
    80002084:	1d898993          	addi	s3,s3,472 # 8000b258 <queuetab>
    80002088:	fff78793          	addi	a5,a5,-1
    8000208c:	00f73023          	sd	a5,0(a4)
    80002090:	0a079663          	bnez	a5,8000213c <resched+0x120>
    80002094:	01800a93          	li	s5,24
    80002098:	03540ab3          	mul	s5,s0,s5
    8000209c:	015a0ab3          	add	s5,s4,s5
    800020a0:	008ab503          	ld	a0,8(s5)
    800020a4:	0105579b          	srliw	a5,a0,0x10
    800020a8:	00379793          	slli	a5,a5,0x3
    800020ac:	00f987b3          	add	a5,s3,a5
    800020b0:	0007a703          	lw	a4,0(a5)
    800020b4:	03100793          	li	a5,49
    800020b8:	00e7c863          	blt	a5,a4,800020c8 <resched+0xac>
    800020bc:	d8dff0ef          	jal	ra,80001e48 <dequeue>
    800020c0:	010ab583          	ld	a1,16(s5)
    800020c4:	c99ff0ef          	jal	ra,80001d5c <enqueue>
    800020c8:	0000ab97          	auipc	s7,0xa
    800020cc:	ae8b8b93          	addi	s7,s7,-1304 # 8000bbb0 <promote_low>
    800020d0:	00341713          	slli	a4,s0,0x3
    800020d4:	00eb8733          	add	a4,s7,a4
    800020d8:	00073783          	ld	a5,0(a4)
    800020dc:	fff78793          	addi	a5,a5,-1
    800020e0:	00f73023          	sd	a5,0(a4)
    800020e4:	04079463          	bnez	a5,8000212c <resched+0x110>
    800020e8:	01800a93          	li	s5,24
    800020ec:	03540ab3          	mul	s5,s0,s5
    800020f0:	015a0ab3          	add	s5,s4,s5
    800020f4:	000ab503          	ld	a0,0(s5)
    800020f8:	0105579b          	srliw	a5,a0,0x10
    800020fc:	00379793          	slli	a5,a5,0x3
    80002100:	00f987b3          	add	a5,s3,a5
    80002104:	0007a703          	lw	a4,0(a5)
    80002108:	03100793          	li	a5,49
    8000210c:	00e7c863          	blt	a5,a4,8000211c <resched+0x100>
    80002110:	d39ff0ef          	jal	ra,80001e48 <dequeue>
    80002114:	008ab583          	ld	a1,8(s5)
    80002118:	c45ff0ef          	jal	ra,80001d5c <enqueue>
    8000211c:	00341793          	slli	a5,s0,0x3
    80002120:	00fb8bb3          	add	s7,s7,a5
    80002124:	00300793          	li	a5,3
    80002128:	00fbb023          	sd	a5,0(s7)
    8000212c:	00341793          	slli	a5,s0,0x3
    80002130:	00fb0b33          	add	s6,s6,a5
    80002134:	00300793          	li	a5,3
    80002138:	00fb3023          	sd	a5,0(s6)
    8000213c:	15000713          	li	a4,336
    80002140:	02e48733          	mul	a4,s1,a4
    80002144:	00005a97          	auipc	s5,0x5
    80002148:	f74a8a93          	addi	s5,s5,-140 # 800070b8 <proctab>
    8000214c:	00100793          	li	a5,1
    80002150:	00ea8733          	add	a4,s5,a4
    80002154:	00072683          	lw	a3,0(a4)
    80002158:	02f69a63          	bne	a3,a5,8000218c <resched+0x170>
    8000215c:	00300793          	li	a5,3
    80002160:	00f72023          	sw	a5,0(a4)
    80002164:	02f407b3          	mul	a5,s0,a5
    80002168:	00472703          	lw	a4,4(a4)
    8000216c:	00e787b3          	add	a5,a5,a4
    80002170:	00379793          	slli	a5,a5,0x3
    80002174:	00241713          	slli	a4,s0,0x2
    80002178:	00fa07b3          	add	a5,s4,a5
    8000217c:	00e90733          	add	a4,s2,a4
    80002180:	0007b583          	ld	a1,0(a5)
    80002184:	00072503          	lw	a0,0(a4)
    80002188:	bd5ff0ef          	jal	ra,80001d5c <enqueue>
    8000218c:	01800713          	li	a4,24
    80002190:	02e40733          	mul	a4,s0,a4
    80002194:	00010637          	lui	a2,0x10
    80002198:	fff60613          	addi	a2,a2,-1 # ffff <_binary_data_elf_size+0xebdf>
    8000219c:	00200693          	li	a3,2
    800021a0:	00ea0733          	add	a4,s4,a4
    800021a4:	01073783          	ld	a5,16(a4)
    800021a8:	0107d793          	srli	a5,a5,0x10
    800021ac:	00c7f7b3          	and	a5,a5,a2
    800021b0:	00379793          	slli	a5,a5,0x3
    800021b4:	00f987b3          	add	a5,s3,a5
    800021b8:	0007a583          	lw	a1,0(a5)
    800021bc:	03100793          	li	a5,49
    800021c0:	02b7d063          	bge	a5,a1,800021e0 <resched+0x1c4>
    800021c4:	00873783          	ld	a5,8(a4)
    800021c8:	0107d793          	srli	a5,a5,0x10
    800021cc:	00c7f7b3          	and	a5,a5,a2
    800021d0:	00379793          	slli	a5,a5,0x3
    800021d4:	00f989b3          	add	s3,s3,a5
    800021d8:	0009a683          	lw	a3,0(s3)
    800021dc:	0326a693          	slti	a3,a3,50
    800021e0:	00300793          	li	a5,3
    800021e4:	02f407b3          	mul	a5,s0,a5
    800021e8:	00241413          	slli	s0,s0,0x2
    800021ec:	00890933          	add	s2,s2,s0
    800021f0:	00d787b3          	add	a5,a5,a3
    800021f4:	00379793          	slli	a5,a5,0x3
    800021f8:	00fa0a33          	add	s4,s4,a5
    800021fc:	000a3503          	ld	a0,0(s4)
    80002200:	c49ff0ef          	jal	ra,80001e48 <dequeue>
    80002204:	15000713          	li	a4,336
    80002208:	00a92023          	sw	a0,0(s2)
    8000220c:	02e50533          	mul	a0,a0,a4
    80002210:	00100693          	li	a3,1
    80002214:	00aa87b3          	add	a5,s5,a0
    80002218:	04050593          	addi	a1,a0,64
    8000221c:	02e48533          	mul	a0,s1,a4
    80002220:	0307b603          	ld	a2,48(a5)
    80002224:	00d7a023          	sw	a3,0(a5)
    80002228:	0387b683          	ld	a3,56(a5)
    8000222c:	fff00793          	li	a5,-1
    80002230:	03f79793          	slli	a5,a5,0x3f
    80002234:	00c65613          	srli	a2,a2,0xc
    80002238:	00ba85b3          	add	a1,s5,a1
    8000223c:	00f66633          	or	a2,a2,a5
    80002240:	04050513          	addi	a0,a0,64
    80002244:	00aa8533          	add	a0,s5,a0
    80002248:	5b9010ef          	jal	ra,80004000 <_ctxsws>
    8000224c:	04813083          	ld	ra,72(sp)
    80002250:	04013403          	ld	s0,64(sp)
    80002254:	03813483          	ld	s1,56(sp)
    80002258:	03013903          	ld	s2,48(sp)
    8000225c:	02813983          	ld	s3,40(sp)
    80002260:	02013a03          	ld	s4,32(sp)
    80002264:	01813a83          	ld	s5,24(sp)
    80002268:	01013b03          	ld	s6,16(sp)
    8000226c:	00813b83          	ld	s7,8(sp)
    80002270:	00100513          	li	a0,1
    80002274:	05010113          	addi	sp,sp,80
    80002278:	00008067          	ret

000000008000227c <pgfree>:
    8000227c:	03451793          	slli	a5,a0,0x34
    80002280:	04079263          	bnez	a5,800022c4 <pgfree+0x48>
    80002284:	ff010113          	addi	sp,sp,-16
    80002288:	000015b7          	lui	a1,0x1
    8000228c:	00813023          	sd	s0,0(sp)
    80002290:	00113423          	sd	ra,8(sp)
    80002294:	00050413          	mv	s0,a0
    80002298:	099000ef          	jal	ra,80002b30 <bzero>
    8000229c:	0000a797          	auipc	a5,0xa
    800022a0:	95478793          	addi	a5,a5,-1708 # 8000bbf0 <pgfreelist>
    800022a4:	0007b703          	ld	a4,0(a5)
    800022a8:	00100513          	li	a0,1
    800022ac:	00e43023          	sd	a4,0(s0)
    800022b0:	0087b023          	sd	s0,0(a5)
    800022b4:	00813083          	ld	ra,8(sp)
    800022b8:	00013403          	ld	s0,0(sp)
    800022bc:	01010113          	addi	sp,sp,16
    800022c0:	00008067          	ret
    800022c4:	fff00513          	li	a0,-1
    800022c8:	00008067          	ret

00000000800022cc <pgfreerange>:
    800022cc:	00005797          	auipc	a5,0x5
    800022d0:	da47b783          	ld	a5,-604(a5) # 80007070 <platform+0x58>
    800022d4:	00b7f663          	bgeu	a5,a1,800022e0 <pgfreerange+0x14>
    800022d8:	fff00513          	li	a0,-1
    800022dc:	00008067          	ret
    800022e0:	0000a797          	auipc	a5,0xa
    800022e4:	8f87b783          	ld	a5,-1800(a5) # 8000bbd8 <memheap>
    800022e8:	fef568e3          	bltu	a0,a5,800022d8 <pgfreerange+0xc>
    800022ec:	fd010113          	addi	sp,sp,-48
    800022f0:	00913c23          	sd	s1,24(sp)
    800022f4:	02113423          	sd	ra,40(sp)
    800022f8:	02813023          	sd	s0,32(sp)
    800022fc:	01213823          	sd	s2,16(sp)
    80002300:	01313423          	sd	s3,8(sp)
    80002304:	00058493          	mv	s1,a1
    80002308:	02a5ee63          	bltu	a1,a0,80002344 <pgfreerange+0x78>
    8000230c:	000017b7          	lui	a5,0x1
    80002310:	fff78793          	addi	a5,a5,-1 # fff <_binary_data_elf_size-0x421>
    80002314:	00f50533          	add	a0,a0,a5
    80002318:	fffff7b7          	lui	a5,0xfffff
    8000231c:	00f57433          	and	s0,a0,a5
    80002320:	00001937          	lui	s2,0x1
    80002324:	fff00993          	li	s3,-1
    80002328:	00040513          	mv	a0,s0
    8000232c:	01240433          	add	s0,s0,s2
    80002330:	00946663          	bltu	s0,s1,8000233c <pgfreerange+0x70>
    80002334:	00100513          	li	a0,1
    80002338:	0100006f          	j	80002348 <pgfreerange+0x7c>
    8000233c:	f41ff0ef          	jal	ra,8000227c <pgfree>
    80002340:	ff3514e3          	bne	a0,s3,80002328 <pgfreerange+0x5c>
    80002344:	fff00513          	li	a0,-1
    80002348:	02813083          	ld	ra,40(sp)
    8000234c:	02013403          	ld	s0,32(sp)
    80002350:	01813483          	ld	s1,24(sp)
    80002354:	01013903          	ld	s2,16(sp)
    80002358:	00813983          	ld	s3,8(sp)
    8000235c:	03010113          	addi	sp,sp,48
    80002360:	00008067          	ret

0000000080002364 <safeInit>:
    80002364:	000017b7          	lui	a5,0x1
    80002368:	00005597          	auipc	a1,0x5
    8000236c:	d085b583          	ld	a1,-760(a1) # 80007070 <platform+0x58>
    80002370:	fff78793          	addi	a5,a5,-1 # fff <_binary_data_elf_size-0x421>
    80002374:	0000a517          	auipc	a0,0xa
    80002378:	86453503          	ld	a0,-1948(a0) # 8000bbd8 <memheap>
    8000237c:	00f587b3          	add	a5,a1,a5
    80002380:	40a787b3          	sub	a5,a5,a0
    80002384:	00c7d793          	srli	a5,a5,0xc
    80002388:	0000a717          	auipc	a4,0xa
    8000238c:	86f72023          	sw	a5,-1952(a4) # 8000bbe8 <pgtbl_nents>
    80002390:	f3dff06f          	j	800022cc <pgfreerange>

0000000080002394 <pgalloc>:
    80002394:	fe010113          	addi	sp,sp,-32
    80002398:	00113c23          	sd	ra,24(sp)
    8000239c:	0000a797          	auipc	a5,0xa
    800023a0:	85478793          	addi	a5,a5,-1964 # 8000bbf0 <pgfreelist>
    800023a4:	0007b503          	ld	a0,0(a5)
    800023a8:	02051063          	bnez	a0,800023c8 <pgalloc+0x34>
    800023ac:	00001517          	auipc	a0,0x1
    800023b0:	14c50513          	addi	a0,a0,332 # 800034f8 <strrchr+0x2f0>
    800023b4:	8e5ff0ef          	jal	ra,80001c98 <kprintf>
    800023b8:	fff00513          	li	a0,-1
    800023bc:	01813083          	ld	ra,24(sp)
    800023c0:	02010113          	addi	sp,sp,32
    800023c4:	00008067          	ret
    800023c8:	00053703          	ld	a4,0(a0)
    800023cc:	000015b7          	lui	a1,0x1
    800023d0:	00a13423          	sd	a0,8(sp)
    800023d4:	00e7b023          	sd	a4,0(a5)
    800023d8:	758000ef          	jal	ra,80002b30 <bzero>
    800023dc:	00813503          	ld	a0,8(sp)
    800023e0:	fddff06f          	j	800023bc <pgalloc+0x28>

00000000800023e4 <pgTraverseAndCreate>:
    800023e4:	fd010113          	addi	sp,sp,-48
    800023e8:	00913c23          	sd	s1,24(sp)
    800023ec:	01213823          	sd	s2,16(sp)
    800023f0:	01313423          	sd	s3,8(sp)
    800023f4:	01413023          	sd	s4,0(sp)
    800023f8:	02113423          	sd	ra,40(sp)
    800023fc:	02813023          	sd	s0,32(sp)
    80002400:	00058493          	mv	s1,a1
    80002404:	00200913          	li	s2,2
    80002408:	00200793          	li	a5,2
    8000240c:	00900a13          	li	s4,9
    80002410:	00100993          	li	s3,1
    80002414:	02fa043b          	mulw	s0,s4,a5
    80002418:	00c4041b          	addiw	s0,s0,12
    8000241c:	0084d433          	srl	s0,s1,s0
    80002420:	1ff47413          	andi	s0,s0,511
    80002424:	00341413          	slli	s0,s0,0x3
    80002428:	00850433          	add	s0,a0,s0
    8000242c:	00043503          	ld	a0,0(s0)
    80002430:	00157793          	andi	a5,a0,1
    80002434:	04078663          	beqz	a5,80002480 <pgTraverseAndCreate+0x9c>
    80002438:	00a55513          	srli	a0,a0,0xa
    8000243c:	00c51513          	slli	a0,a0,0xc
    80002440:	00100793          	li	a5,1
    80002444:	03391a63          	bne	s2,s3,80002478 <pgTraverseAndCreate+0x94>
    80002448:	00c4d493          	srli	s1,s1,0xc
    8000244c:	1ff4f493          	andi	s1,s1,511
    80002450:	00349493          	slli	s1,s1,0x3
    80002454:	00950533          	add	a0,a0,s1
    80002458:	02813083          	ld	ra,40(sp)
    8000245c:	02013403          	ld	s0,32(sp)
    80002460:	01813483          	ld	s1,24(sp)
    80002464:	01013903          	ld	s2,16(sp)
    80002468:	00813983          	ld	s3,8(sp)
    8000246c:	00013a03          	ld	s4,0(sp)
    80002470:	03010113          	addi	sp,sp,48
    80002474:	00008067          	ret
    80002478:	00100913          	li	s2,1
    8000247c:	f99ff06f          	j	80002414 <pgTraverseAndCreate+0x30>
    80002480:	f15ff0ef          	jal	ra,80002394 <pgalloc>
    80002484:	fff00793          	li	a5,-1
    80002488:	fcf508e3          	beq	a0,a5,80002458 <pgTraverseAndCreate+0x74>
    8000248c:	00c55793          	srli	a5,a0,0xc
    80002490:	00a79793          	slli	a5,a5,0xa
    80002494:	0017e793          	ori	a5,a5,1
    80002498:	00f43023          	sd	a5,0(s0)
    8000249c:	fa5ff06f          	j	80002440 <pgTraverseAndCreate+0x5c>

00000000800024a0 <mapPage>:
    800024a0:	fd010113          	addi	sp,sp,-48
    800024a4:	fffff7b7          	lui	a5,0xfffff
    800024a8:	02813023          	sd	s0,32(sp)
    800024ac:	00058413          	mv	s0,a1
    800024b0:	00f675b3          	and	a1,a2,a5
    800024b4:	01213823          	sd	s2,16(sp)
    800024b8:	02113423          	sd	ra,40(sp)
    800024bc:	00913c23          	sd	s1,24(sp)
    800024c0:	00068913          	mv	s2,a3
    800024c4:	00b13423          	sd	a1,8(sp)
    800024c8:	f1dff0ef          	jal	ra,800023e4 <pgTraverseAndCreate>
    800024cc:	fff00793          	li	a5,-1
    800024d0:	04f50a63          	beq	a0,a5,80002524 <mapPage+0x84>
    800024d4:	00053783          	ld	a5,0(a0)
    800024d8:	00813583          	ld	a1,8(sp)
    800024dc:	00050493          	mv	s1,a0
    800024e0:	0017f793          	andi	a5,a5,1
    800024e4:	00078863          	beqz	a5,800024f4 <mapPage+0x54>
    800024e8:	00001517          	auipc	a0,0x1
    800024ec:	02850513          	addi	a0,a0,40 # 80003510 <strrchr+0x308>
    800024f0:	fa8ff0ef          	jal	ra,80001c98 <kprintf>
    800024f4:	00c45413          	srli	s0,s0,0xc
    800024f8:	00a41413          	slli	s0,s0,0xa
    800024fc:	01246433          	or	s0,s0,s2
    80002500:	00146413          	ori	s0,s0,1
    80002504:	0084b023          	sd	s0,0(s1)
    80002508:	00100513          	li	a0,1
    8000250c:	02813083          	ld	ra,40(sp)
    80002510:	02013403          	ld	s0,32(sp)
    80002514:	01813483          	ld	s1,24(sp)
    80002518:	01013903          	ld	s2,16(sp)
    8000251c:	03010113          	addi	sp,sp,48
    80002520:	00008067          	ret
    80002524:	fff00513          	li	a0,-1
    80002528:	fe5ff06f          	j	8000250c <mapPage+0x6c>

000000008000252c <mapAddress>:
    8000252c:	04069263          	bnez	a3,80002570 <mapAddress+0x44>
    80002530:	fff00513          	li	a0,-1
    80002534:	00008067          	ret
    80002538:	fff00513          	li	a0,-1
    8000253c:	05813083          	ld	ra,88(sp)
    80002540:	05013403          	ld	s0,80(sp)
    80002544:	04813483          	ld	s1,72(sp)
    80002548:	04013903          	ld	s2,64(sp)
    8000254c:	03813983          	ld	s3,56(sp)
    80002550:	03013a03          	ld	s4,48(sp)
    80002554:	02813a83          	ld	s5,40(sp)
    80002558:	02013b03          	ld	s6,32(sp)
    8000255c:	01813b83          	ld	s7,24(sp)
    80002560:	01013c03          	ld	s8,16(sp)
    80002564:	00813c83          	ld	s9,8(sp)
    80002568:	06010113          	addi	sp,sp,96
    8000256c:	00008067          	ret
    80002570:	fa010113          	addi	sp,sp,-96
    80002574:	03313c23          	sd	s3,56(sp)
    80002578:	00070993          	mv	s3,a4
    8000257c:	00001737          	lui	a4,0x1
    80002580:	fff70713          	addi	a4,a4,-1 # fff <_binary_data_elf_size-0x421>
    80002584:	03413823          	sd	s4,48(sp)
    80002588:	00e687b3          	add	a5,a3,a4
    8000258c:	00060a13          	mv	s4,a2
    80002590:	fffff637          	lui	a2,0xfffff
    80002594:	00c7f733          	and	a4,a5,a2
    80002598:	04813823          	sd	s0,80(sp)
    8000259c:	00c5f433          	and	s0,a1,a2
    800025a0:	03513423          	sd	s5,40(sp)
    800025a4:	00870ab3          	add	s5,a4,s0
    800025a8:	05213023          	sd	s2,64(sp)
    800025ac:	000a8613          	mv	a2,s5
    800025b0:	00050913          	mv	s2,a0
    800025b4:	00040593          	mv	a1,s0
    800025b8:	00001517          	auipc	a0,0x1
    800025bc:	f7050513          	addi	a0,a0,-144 # 80003528 <strrchr+0x320>
    800025c0:	03613023          	sd	s6,32(sp)
    800025c4:	01713c23          	sd	s7,24(sp)
    800025c8:	01813823          	sd	s8,16(sp)
    800025cc:	04113c23          	sd	ra,88(sp)
    800025d0:	04913423          	sd	s1,72(sp)
    800025d4:	01913423          	sd	s9,8(sp)
    800025d8:	408a0a33          	sub	s4,s4,s0
    800025dc:	ebcff0ef          	jal	ra,80001c98 <kprintf>
    800025e0:	fff00b13          	li	s6,-1
    800025e4:	00001b97          	auipc	s7,0x1
    800025e8:	f8cb8b93          	addi	s7,s7,-116 # 80003570 <strrchr+0x368>
    800025ec:	00001c37          	lui	s8,0x1
    800025f0:	014404b3          	add	s1,s0,s4
    800025f4:	01546663          	bltu	s0,s5,80002600 <mapAddress+0xd4>
    800025f8:	00100513          	li	a0,1
    800025fc:	f41ff06f          	j	8000253c <mapAddress+0x10>
    80002600:	00040593          	mv	a1,s0
    80002604:	00090513          	mv	a0,s2
    80002608:	dddff0ef          	jal	ra,800023e4 <pgTraverseAndCreate>
    8000260c:	00050c93          	mv	s9,a0
    80002610:	f36504e3          	beq	a0,s6,80002538 <mapAddress+0xc>
    80002614:	00053783          	ld	a5,0(a0)
    80002618:	0017f793          	andi	a5,a5,1
    8000261c:	00078863          	beqz	a5,8000262c <mapAddress+0x100>
    80002620:	00040593          	mv	a1,s0
    80002624:	000b8513          	mv	a0,s7
    80002628:	e70ff0ef          	jal	ra,80001c98 <kprintf>
    8000262c:	00c4d493          	srli	s1,s1,0xc
    80002630:	00a49493          	slli	s1,s1,0xa
    80002634:	0134e4b3          	or	s1,s1,s3
    80002638:	0014e493          	ori	s1,s1,1
    8000263c:	009cb023          	sd	s1,0(s9)
    80002640:	01840433          	add	s0,s0,s8
    80002644:	fadff06f          	j	800025f0 <mapAddress+0xc4>

0000000080002648 <safeKmapInit>:
    80002648:	fe010113          	addi	sp,sp,-32
    8000264c:	00113c23          	sd	ra,24(sp)
    80002650:	00813823          	sd	s0,16(sp)
    80002654:	00913423          	sd	s1,8(sp)
    80002658:	01213023          	sd	s2,0(sp)
    8000265c:	d39ff0ef          	jal	ra,80002394 <pgalloc>
    80002660:	00600713          	li	a4,6
    80002664:	10000693          	li	a3,256
    80002668:	10000637          	lui	a2,0x10000
    8000266c:	100005b7          	lui	a1,0x10000
    80002670:	00050413          	mv	s0,a0
    80002674:	eb9ff0ef          	jal	ra,8000252c <mapAddress>
    80002678:	ffffe617          	auipc	a2,0xffffe
    8000267c:	98860613          	addi	a2,a2,-1656 # 80000000 <_start>
    80002680:	00002497          	auipc	s1,0x2
    80002684:	98048493          	addi	s1,s1,-1664 # 80004000 <_ctxsws>
    80002688:	40c486b3          	sub	a3,s1,a2
    8000268c:	00060593          	mv	a1,a2
    80002690:	00a00713          	li	a4,10
    80002694:	00040513          	mv	a0,s0
    80002698:	e95ff0ef          	jal	ra,8000252c <mapAddress>
    8000269c:	00003917          	auipc	s2,0x3
    800026a0:	96490913          	addi	s2,s2,-1692 # 80005000 <_ctxswe>
    800026a4:	20001637          	lui	a2,0x20001
    800026a8:	409906b3          	sub	a3,s2,s1
    800026ac:	00048593          	mv	a1,s1
    800026b0:	02a00713          	li	a4,42
    800026b4:	00261613          	slli	a2,a2,0x2
    800026b8:	00040513          	mv	a0,s0
    800026bc:	e71ff0ef          	jal	ra,8000252c <mapAddress>
    800026c0:	00004497          	auipc	s1,0x4
    800026c4:	94048493          	addi	s1,s1,-1728 # 80006000 <trap_names>
    800026c8:	412486b3          	sub	a3,s1,s2
    800026cc:	00090613          	mv	a2,s2
    800026d0:	00090593          	mv	a1,s2
    800026d4:	00e00713          	li	a4,14
    800026d8:	00040513          	mv	a0,s0
    800026dc:	e51ff0ef          	jal	ra,8000252c <mapAddress>
    800026e0:	00009917          	auipc	s2,0x9
    800026e4:	4f890913          	addi	s2,s2,1272 # 8000bbd8 <memheap>
    800026e8:	00093683          	ld	a3,0(s2)
    800026ec:	00048613          	mv	a2,s1
    800026f0:	00048593          	mv	a1,s1
    800026f4:	409686b3          	sub	a3,a3,s1
    800026f8:	00600713          	li	a4,6
    800026fc:	00040513          	mv	a0,s0
    80002700:	e2dff0ef          	jal	ra,8000252c <mapAddress>
    80002704:	00001517          	auipc	a0,0x1
    80002708:	db450513          	addi	a0,a0,-588 # 800034b8 <strrchr+0x2b0>
    8000270c:	d8cff0ef          	jal	ra,80001c98 <kprintf>
    80002710:	00093603          	ld	a2,0(s2)
    80002714:	00005697          	auipc	a3,0x5
    80002718:	95c6b683          	ld	a3,-1700(a3) # 80007070 <platform+0x58>
    8000271c:	00600713          	li	a4,6
    80002720:	40c686b3          	sub	a3,a3,a2
    80002724:	00060593          	mv	a1,a2
    80002728:	00040513          	mv	a0,s0
    8000272c:	e01ff0ef          	jal	ra,8000252c <mapAddress>
    80002730:	301020ef          	jal	ra,80005230 <gethartid>
    80002734:	02051793          	slli	a5,a0,0x20
    80002738:	01e7d513          	srli	a0,a5,0x1e
    8000273c:	00009797          	auipc	a5,0x9
    80002740:	4a478793          	addi	a5,a5,1188 # 8000bbe0 <currpid>
    80002744:	00a787b3          	add	a5,a5,a0
    80002748:	0007a703          	lw	a4,0(a5)
    8000274c:	15000793          	li	a5,336
    80002750:	fff00513          	li	a0,-1
    80002754:	02f70733          	mul	a4,a4,a5
    80002758:	00005797          	auipc	a5,0x5
    8000275c:	96078793          	addi	a5,a5,-1696 # 800070b8 <proctab>
    80002760:	03f51513          	slli	a0,a0,0x3f
    80002764:	00e787b3          	add	a5,a5,a4
    80002768:	0287b823          	sd	s0,48(a5)
    8000276c:	00c45413          	srli	s0,s0,0xc
    80002770:	00a46533          	or	a0,s0,a0
    80002774:	01013403          	ld	s0,16(sp)
    80002778:	01813083          	ld	ra,24(sp)
    8000277c:	00813483          	ld	s1,8(sp)
    80002780:	00013903          	ld	s2,0(sp)
    80002784:	02010113          	addi	sp,sp,32
    80002788:	2b90206f          	j	80005240 <set_satp>

000000008000278c <lock_create>:
    8000278c:	fd010113          	addi	sp,sp,-48
    80002790:	00913c23          	sd	s1,24(sp)
    80002794:	00009497          	auipc	s1,0x9
    80002798:	d1448493          	addi	s1,s1,-748 # 8000b4a8 <locktab>
    8000279c:	02813023          	sd	s0,32(sp)
    800027a0:	01213823          	sd	s2,16(sp)
    800027a4:	01313423          	sd	s3,8(sp)
    800027a8:	02113423          	sd	ra,40(sp)
    800027ac:	00000413          	li	s0,0
    800027b0:	00048913          	mv	s2,s1
    800027b4:	09600993          	li	s3,150
    800027b8:	00200613          	li	a2,2
    800027bc:	00100593          	li	a1,1
    800027c0:	00048513          	mv	a0,s1
    800027c4:	0f9020ef          	jal	ra,800050bc <_atomic_compareAndSwapWeak>
    800027c8:	02050e63          	beqz	a0,80002804 <lock_create+0x78>
    800027cc:	0004051b          	sext.w	a0,s0
    800027d0:	02041413          	slli	s0,s0,0x20
    800027d4:	02045413          	srli	s0,s0,0x20
    800027d8:	00c00793          	li	a5,12
    800027dc:	02f40433          	mul	s0,s0,a5
    800027e0:	00890933          	add	s2,s2,s0
    800027e4:	00092223          	sw	zero,4(s2)
    800027e8:	02813083          	ld	ra,40(sp)
    800027ec:	02013403          	ld	s0,32(sp)
    800027f0:	01813483          	ld	s1,24(sp)
    800027f4:	01013903          	ld	s2,16(sp)
    800027f8:	00813983          	ld	s3,8(sp)
    800027fc:	03010113          	addi	sp,sp,48
    80002800:	00008067          	ret
    80002804:	0014041b          	addiw	s0,s0,1
    80002808:	00c48493          	addi	s1,s1,12
    8000280c:	fb3416e3          	bne	s0,s3,800027b8 <lock_create+0x2c>
    80002810:	fff00513          	li	a0,-1
    80002814:	fd5ff06f          	j	800027e8 <lock_create+0x5c>

0000000080002818 <lock_acquire>:
    80002818:	09600793          	li	a5,150
    8000281c:	06a7e463          	bltu	a5,a0,80002884 <lock_acquire+0x6c>
    80002820:	02051793          	slli	a5,a0,0x20
    80002824:	00c00693          	li	a3,12
    80002828:	0207d793          	srli	a5,a5,0x20
    8000282c:	02d787b3          	mul	a5,a5,a3
    80002830:	ff010113          	addi	sp,sp,-16
    80002834:	00009717          	auipc	a4,0x9
    80002838:	c7470713          	addi	a4,a4,-908 # 8000b4a8 <locktab>
    8000283c:	00813023          	sd	s0,0(sp)
    80002840:	00113423          	sd	ra,8(sp)
    80002844:	00100693          	li	a3,1
    80002848:	fff00513          	li	a0,-1
    8000284c:	00f70433          	add	s0,a4,a5
    80002850:	00044603          	lbu	a2,0(s0)
    80002854:	02d60063          	beq	a2,a3,80002874 <lock_acquire+0x5c>
    80002858:	00478793          	addi	a5,a5,4
    8000285c:	00f70533          	add	a0,a4,a5
    80002860:	07d020ef          	jal	ra,800050dc <_lock_acquire>
    80002864:	1cd020ef          	jal	ra,80005230 <gethartid>
    80002868:	0005051b          	sext.w	a0,a0
    8000286c:	00a42423          	sw	a0,8(s0)
    80002870:	00100513          	li	a0,1
    80002874:	00813083          	ld	ra,8(sp)
    80002878:	00013403          	ld	s0,0(sp)
    8000287c:	01010113          	addi	sp,sp,16
    80002880:	00008067          	ret
    80002884:	fff00513          	li	a0,-1
    80002888:	00008067          	ret

000000008000288c <lock_release>:
    8000288c:	09600793          	li	a5,150
    80002890:	04a7ee63          	bltu	a5,a0,800028ec <lock_release+0x60>
    80002894:	02051793          	slli	a5,a0,0x20
    80002898:	00c00693          	li	a3,12
    8000289c:	0207d793          	srli	a5,a5,0x20
    800028a0:	02d787b3          	mul	a5,a5,a3
    800028a4:	00009717          	auipc	a4,0x9
    800028a8:	c0470713          	addi	a4,a4,-1020 # 8000b4a8 <locktab>
    800028ac:	00100613          	li	a2,1
    800028b0:	fff00513          	li	a0,-1
    800028b4:	00f706b3          	add	a3,a4,a5
    800028b8:	0006c583          	lbu	a1,0(a3)
    800028bc:	02c58c63          	beq	a1,a2,800028f4 <lock_release+0x68>
    800028c0:	ff010113          	addi	sp,sp,-16
    800028c4:	00478793          	addi	a5,a5,4
    800028c8:	00113423          	sd	ra,8(sp)
    800028cc:	fff00613          	li	a2,-1
    800028d0:	00f70533          	add	a0,a4,a5
    800028d4:	00c6a423          	sw	a2,8(a3)
    800028d8:	01d020ef          	jal	ra,800050f4 <_lock_release>
    800028dc:	00813083          	ld	ra,8(sp)
    800028e0:	00100513          	li	a0,1
    800028e4:	01010113          	addi	sp,sp,16
    800028e8:	00008067          	ret
    800028ec:	fff00513          	li	a0,-1
    800028f0:	00008067          	ret
    800028f4:	00008067          	ret

00000000800028f8 <sc_none>:
    800028f8:	00100513          	li	a0,1
    800028fc:	00008067          	ret

0000000080002900 <sc_yield>:
    80002900:	f1cff06f          	j	8000201c <resched>

0000000080002904 <sc_getc>:
    80002904:	00052783          	lw	a5,0(a0)
    80002908:	00079463          	bnez	a5,80002910 <sc_getc+0xc>
    8000290c:	b74ff06f          	j	80001c80 <kgetc>
    80002910:	fff00513          	li	a0,-1
    80002914:	00008067          	ret

0000000080002918 <sc_putc>:
    80002918:	00050793          	mv	a5,a0
    8000291c:	0007a783          	lw	a5,0(a5)
    80002920:	00854503          	lbu	a0,8(a0)
    80002924:	00079463          	bnez	a5,8000292c <sc_putc+0x14>
    80002928:	b40ff06f          	j	80001c68 <kputc>
    8000292c:	fff00513          	li	a0,-1
    80002930:	00008067          	ret

0000000080002934 <sc_kill>:
    80002934:	00052503          	lw	a0,0(a0)
    80002938:	a80ff06f          	j	80001bb8 <kill>

000000008000293c <syscall_dispatch>:
    8000293c:	00050793          	mv	a5,a0
    80002940:	02054663          	bltz	a0,8000296c <syscall_dispatch+0x30>
    80002944:	00003717          	auipc	a4,0x3
    80002948:	74072703          	lw	a4,1856(a4) # 80006084 <nsyscall>
    8000294c:	02e55063          	bge	a0,a4,8000296c <syscall_dispatch+0x30>
    80002950:	00479793          	slli	a5,a5,0x4
    80002954:	00001717          	auipc	a4,0x1
    80002958:	cc470713          	addi	a4,a4,-828 # 80003618 <syscall_table>
    8000295c:	00f707b3          	add	a5,a4,a5
    80002960:	0087b783          	ld	a5,8(a5)
    80002964:	00058513          	mv	a0,a1
    80002968:	00078067          	jr	a5
    8000296c:	ff010113          	addi	sp,sp,-16
    80002970:	00078593          	mv	a1,a5
    80002974:	00001517          	auipc	a0,0x1
    80002978:	c8450513          	addi	a0,a0,-892 # 800035f8 <strrchr+0x3f0>
    8000297c:	00113423          	sd	ra,8(sp)
    80002980:	b18ff0ef          	jal	ra,80001c98 <kprintf>
    80002984:	00813083          	ld	ra,8(sp)
    80002988:	fff00513          	li	a0,-1
    8000298c:	01010113          	addi	sp,sp,16
    80002990:	00008067          	ret

0000000080002994 <user_kill>:
    80002994:	00300893          	li	a7,3
    80002998:	00000073          	ecall
    8000299c:	00050513          	mv	a0,a0
    800029a0:	0005051b          	sext.w	a0,a0
    800029a4:	00008067          	ret

00000000800029a8 <xtrap>:
    800029a8:	fe010113          	addi	sp,sp,-32
    800029ac:	00359593          	slli	a1,a1,0x3
    800029b0:	00003797          	auipc	a5,0x3
    800029b4:	65078793          	addi	a5,a5,1616 # 80006000 <trap_names>
    800029b8:	00813823          	sd	s0,16(sp)
    800029bc:	00913423          	sd	s1,8(sp)
    800029c0:	01213023          	sd	s2,0(sp)
    800029c4:	00113c23          	sd	ra,24(sp)
    800029c8:	00b787b3          	add	a5,a5,a1
    800029cc:	0007b583          	ld	a1,0(a5)
    800029d0:	00050413          	mv	s0,a0
    800029d4:	00001517          	auipc	a0,0x1
    800029d8:	d5450513          	addi	a0,a0,-684 # 80003728 <syscall_table+0x110>
    800029dc:	00060493          	mv	s1,a2
    800029e0:	00068913          	mv	s2,a3
    800029e4:	ab4ff0ef          	jal	ra,80001c98 <kprintf>
    800029e8:	00090593          	mv	a1,s2
    800029ec:	00001517          	auipc	a0,0x1
    800029f0:	d5c50513          	addi	a0,a0,-676 # 80003748 <syscall_table+0x130>
    800029f4:	aa4ff0ef          	jal	ra,80001c98 <kprintf>
    800029f8:	00048a63          	beqz	s1,80002a0c <xtrap+0x64>
    800029fc:	00048593          	mv	a1,s1
    80002a00:	00001517          	auipc	a0,0x1
    80002a04:	d6850513          	addi	a0,a0,-664 # 80003768 <syscall_table+0x150>
    80002a08:	a90ff0ef          	jal	ra,80001c98 <kprintf>
    80002a0c:	0f843703          	ld	a4,248(s0)
    80002a10:	0f043683          	ld	a3,240(s0)
    80002a14:	0e843603          	ld	a2,232(s0)
    80002a18:	0e840593          	addi	a1,s0,232
    80002a1c:	00001517          	auipc	a0,0x1
    80002a20:	d6c50513          	addi	a0,a0,-660 # 80003788 <syscall_table+0x170>
    80002a24:	a74ff0ef          	jal	ra,80001c98 <kprintf>
    80002a28:	0e043783          	ld	a5,224(s0)
    80002a2c:	09843703          	ld	a4,152(s0)
    80002a30:	09043683          	ld	a3,144(s0)
    80002a34:	08843603          	ld	a2,136(s0)
    80002a38:	08840593          	addi	a1,s0,136
    80002a3c:	00001517          	auipc	a0,0x1
    80002a40:	d8450513          	addi	a0,a0,-636 # 800037c0 <syscall_table+0x1a8>
    80002a44:	a54ff0ef          	jal	ra,80001c98 <kprintf>
    80002a48:	08043783          	ld	a5,128(s0)
    80002a4c:	07843703          	ld	a4,120(s0)
    80002a50:	07043683          	ld	a3,112(s0)
    80002a54:	06843603          	ld	a2,104(s0)
    80002a58:	06840593          	addi	a1,s0,104
    80002a5c:	00001517          	auipc	a0,0x1
    80002a60:	dac50513          	addi	a0,a0,-596 # 80003808 <syscall_table+0x1f0>
    80002a64:	a34ff0ef          	jal	ra,80001c98 <kprintf>
    80002a68:	06043783          	ld	a5,96(s0)
    80002a6c:	05843703          	ld	a4,88(s0)
    80002a70:	05043683          	ld	a3,80(s0)
    80002a74:	03843603          	ld	a2,56(s0)
    80002a78:	03840593          	addi	a1,s0,56
    80002a7c:	00001517          	auipc	a0,0x1
    80002a80:	dd450513          	addi	a0,a0,-556 # 80003850 <syscall_table+0x238>
    80002a84:	a14ff0ef          	jal	ra,80001c98 <kprintf>
    80002a88:	03043783          	ld	a5,48(s0)
    80002a8c:	02843703          	ld	a4,40(s0)
    80002a90:	02043683          	ld	a3,32(s0)
    80002a94:	01843603          	ld	a2,24(s0)
    80002a98:	01840593          	addi	a1,s0,24
    80002a9c:	00001517          	auipc	a0,0x1
    80002aa0:	dfc50513          	addi	a0,a0,-516 # 80003898 <syscall_table+0x280>
    80002aa4:	9f4ff0ef          	jal	ra,80001c98 <kprintf>
    80002aa8:	01043783          	ld	a5,16(s0)
    80002aac:	00843703          	ld	a4,8(s0)
    80002ab0:	00043683          	ld	a3,0(s0)
    80002ab4:	04843603          	ld	a2,72(s0)
    80002ab8:	04840593          	addi	a1,s0,72
    80002abc:	00001517          	auipc	a0,0x1
    80002ac0:	e2450513          	addi	a0,a0,-476 # 800038e0 <syscall_table+0x2c8>
    80002ac4:	9d4ff0ef          	jal	ra,80001c98 <kprintf>
    80002ac8:	04043783          	ld	a5,64(s0)
    80002acc:	0d843703          	ld	a4,216(s0)
    80002ad0:	0d043683          	ld	a3,208(s0)
    80002ad4:	0c843603          	ld	a2,200(s0)
    80002ad8:	0c840593          	addi	a1,s0,200
    80002adc:	00001517          	auipc	a0,0x1
    80002ae0:	e4c50513          	addi	a0,a0,-436 # 80003928 <syscall_table+0x310>
    80002ae4:	9b4ff0ef          	jal	ra,80001c98 <kprintf>
    80002ae8:	0b843783          	ld	a5,184(s0)
    80002aec:	0a843683          	ld	a3,168(s0)
    80002af0:	0a043603          	ld	a2,160(s0)
    80002af4:	00078713          	mv	a4,a5
    80002af8:	0a040593          	addi	a1,s0,160
    80002afc:	00001517          	auipc	a0,0x1
    80002b00:	e7450513          	addi	a0,a0,-396 # 80003970 <syscall_table+0x358>
    80002b04:	994ff0ef          	jal	ra,80001c98 <kprintf>
    80002b08:	0000006f          	j	80002b08 <xtrap+0x160>

0000000080002b0c <main>:
    80002b0c:	ff010113          	addi	sp,sp,-16
    80002b10:	00001517          	auipc	a0,0x1
    80002b14:	02850513          	addi	a0,a0,40 # 80003b38 <syscall_table+0x520>
    80002b18:	00113423          	sd	ra,8(sp)
    80002b1c:	97cff0ef          	jal	ra,80001c98 <kprintf>
    80002b20:	00813083          	ld	ra,8(sp)
    80002b24:	00000513          	li	a0,0
    80002b28:	01010113          	addi	sp,sp,16
    80002b2c:	00008067          	ret

0000000080002b30 <bzero>:
    80002b30:	00058613          	mv	a2,a1
    80002b34:	00000593          	li	a1,0
    80002b38:	5d40006f          	j	8000310c <memset>

0000000080002b3c <_doprnt>:
    80002b3c:	ef010113          	addi	sp,sp,-272
    80002b40:	10813023          	sd	s0,256(sp)
    80002b44:	0f213823          	sd	s2,240(sp)
    80002b48:	0f313423          	sd	s3,232(sp)
    80002b4c:	0b913c23          	sd	s9,184(sp)
    80002b50:	10113423          	sd	ra,264(sp)
    80002b54:	0e913c23          	sd	s1,248(sp)
    80002b58:	0f413023          	sd	s4,224(sp)
    80002b5c:	0d513c23          	sd	s5,216(sp)
    80002b60:	0d613823          	sd	s6,208(sp)
    80002b64:	0d713423          	sd	s7,200(sp)
    80002b68:	0d813023          	sd	s8,192(sp)
    80002b6c:	0ba13823          	sd	s10,176(sp)
    80002b70:	0bb13423          	sd	s11,168(sp)
    80002b74:	00050c93          	mv	s9,a0
    80002b78:	00058413          	mv	s0,a1
    80002b7c:	00060993          	mv	s3,a2
    80002b80:	00d13023          	sd	a3,0(sp)
    80002b84:	00000913          	li	s2,0
    80002b88:	000cc783          	lbu	a5,0(s9)
    80002b8c:	4c078863          	beqz	a5,8000305c <_doprnt+0x520>
    80002b90:	02500713          	li	a4,37
    80002b94:	1ae79e63          	bne	a5,a4,80002d50 <_doprnt+0x214>
    80002b98:	001cc703          	lbu	a4,1(s9)
    80002b9c:	02500693          	li	a3,37
    80002ba0:	001c8793          	addi	a5,s9,1
    80002ba4:	56d70063          	beq	a4,a3,80003104 <_doprnt+0x5c8>
    80002ba8:	02000a93          	li	s5,32
    80002bac:	00000b13          	li	s6,0
    80002bb0:	02d00693          	li	a3,45
    80002bb4:	03000613          	li	a2,48
    80002bb8:	0007c703          	lbu	a4,0(a5)
    80002bbc:	08d70063          	beq	a4,a3,80002c3c <_doprnt+0x100>
    80002bc0:	08c70463          	beq	a4,a2,80002c48 <_doprnt+0x10c>
    80002bc4:	02a00693          	li	a3,42
    80002bc8:	08d70463          	beq	a4,a3,80002c50 <_doprnt+0x114>
    80002bcc:	00000b93          	li	s7,0
    80002bd0:	00900593          	li	a1,9
    80002bd4:	00a00513          	li	a0,10
    80002bd8:	0007c603          	lbu	a2,0(a5)
    80002bdc:	fd06071b          	addiw	a4,a2,-48 # 20000fd0 <_binary_data_elf_size+0x1ffffbb0>
    80002be0:	0ff77713          	zext.b	a4,a4
    80002be4:	08e5f663          	bgeu	a1,a4,80002c70 <_doprnt+0x134>
    80002be8:	080b1063          	bnez	s6,80002c68 <_doprnt+0x12c>
    80002bec:	0007c603          	lbu	a2,0(a5)
    80002bf0:	02e00713          	li	a4,46
    80002bf4:	fff00493          	li	s1,-1
    80002bf8:	08e61c63          	bne	a2,a4,80002c90 <_doprnt+0x154>
    80002bfc:	0017c603          	lbu	a2,1(a5)
    80002c00:	02a00713          	li	a4,42
    80002c04:	08e60063          	beq	a2,a4,80002c84 <_doprnt+0x148>
    80002c08:	00178793          	addi	a5,a5,1
    80002c0c:	00000493          	li	s1,0
    80002c10:	00900593          	li	a1,9
    80002c14:	00a00513          	li	a0,10
    80002c18:	0007c603          	lbu	a2,0(a5)
    80002c1c:	fd06071b          	addiw	a4,a2,-48
    80002c20:	0ff77713          	zext.b	a4,a4
    80002c24:	06e5e663          	bltu	a1,a4,80002c90 <_doprnt+0x154>
    80002c28:	029504bb          	mulw	s1,a0,s1
    80002c2c:	00178793          	addi	a5,a5,1
    80002c30:	fd04849b          	addiw	s1,s1,-48
    80002c34:	00c484bb          	addw	s1,s1,a2
    80002c38:	fe1ff06f          	j	80002c18 <_doprnt+0xdc>
    80002c3c:	00100b13          	li	s6,1
    80002c40:	00178793          	addi	a5,a5,1
    80002c44:	f75ff06f          	j	80002bb8 <_doprnt+0x7c>
    80002c48:	03000a93          	li	s5,48
    80002c4c:	ff5ff06f          	j	80002c40 <_doprnt+0x104>
    80002c50:	00042b83          	lw	s7,0(s0)
    80002c54:	00178793          	addi	a5,a5,1
    80002c58:	00840413          	addi	s0,s0,8
    80002c5c:	f80bd6e3          	bgez	s7,80002be8 <_doprnt+0xac>
    80002c60:	41700bbb          	negw	s7,s7
    80002c64:	00100b13          	li	s6,1
    80002c68:	02000a93          	li	s5,32
    80002c6c:	f81ff06f          	j	80002bec <_doprnt+0xb0>
    80002c70:	037506bb          	mulw	a3,a0,s7
    80002c74:	00178793          	addi	a5,a5,1
    80002c78:	fd06869b          	addiw	a3,a3,-48
    80002c7c:	00c68bbb          	addw	s7,a3,a2
    80002c80:	f59ff06f          	j	80002bd8 <_doprnt+0x9c>
    80002c84:	00042483          	lw	s1,0(s0)
    80002c88:	00278793          	addi	a5,a5,2
    80002c8c:	00840413          	addi	s0,s0,8
    80002c90:	0007c703          	lbu	a4,0(a5)
    80002c94:	06c00613          	li	a2,108
    80002c98:	02c71663          	bne	a4,a2,80002cc4 <_doprnt+0x188>
    80002c9c:	0017c703          	lbu	a4,1(a5)
    80002ca0:	06f00513          	li	a0,111
    80002ca4:	00178613          	addi	a2,a5,1
    80002ca8:	00300593          	li	a1,3
    80002cac:	08a71063          	bne	a4,a0,80002d2c <_doprnt+0x1f0>
    80002cb0:	00278c93          	addi	s9,a5,2
    80002cb4:	00043783          	ld	a5,0(s0)
    80002cb8:	00840d13          	addi	s10,s0,8
    80002cbc:	00800613          	li	a2,8
    80002cc0:	1a40006f          	j	80002e64 <_doprnt+0x328>
    80002cc4:	06800613          	li	a2,104
    80002cc8:	04c71663          	bne	a4,a2,80002d14 <_doprnt+0x1d8>
    80002ccc:	0017c583          	lbu	a1,1(a5)
    80002cd0:	02e58463          	beq	a1,a4,80002cf8 <_doprnt+0x1bc>
    80002cd4:	00058713          	mv	a4,a1
    80002cd8:	06f00513          	li	a0,111
    80002cdc:	00178613          	addi	a2,a5,1
    80002ce0:	00100593          	li	a1,1
    80002ce4:	04a71463          	bne	a4,a0,80002d2c <_doprnt+0x1f0>
    80002ce8:	00278c93          	addi	s9,a5,2
    80002cec:	00046783          	lwu	a5,0(s0)
    80002cf0:	00840d13          	addi	s10,s0,8
    80002cf4:	fc9ff06f          	j	80002cbc <_doprnt+0x180>
    80002cf8:	0027c703          	lbu	a4,2(a5)
    80002cfc:	06f00513          	li	a0,111
    80002d00:	00278613          	addi	a2,a5,2
    80002d04:	00000593          	li	a1,0
    80002d08:	02a71263          	bne	a4,a0,80002d2c <_doprnt+0x1f0>
    80002d0c:	00378c93          	addi	s9,a5,3
    80002d10:	fddff06f          	j	80002cec <_doprnt+0x1b0>
    80002d14:	06f00513          	li	a0,111
    80002d18:	00078613          	mv	a2,a5
    80002d1c:	00200593          	li	a1,2
    80002d20:	00a71663          	bne	a4,a0,80002d2c <_doprnt+0x1f0>
    80002d24:	00178c93          	addi	s9,a5,1
    80002d28:	fc5ff06f          	j	80002cec <_doprnt+0x1b0>
    80002d2c:	06f00793          	li	a5,111
    80002d30:	06e7ee63          	bltu	a5,a4,80002dac <_doprnt+0x270>
    80002d34:	06300793          	li	a5,99
    80002d38:	0af70463          	beq	a4,a5,80002de0 <_doprnt+0x2a4>
    80002d3c:	02e7ec63          	bltu	a5,a4,80002d74 <_doprnt+0x238>
    80002d40:	05800793          	li	a5,88
    80002d44:	12f70463          	beq	a4,a5,80002e6c <_doprnt+0x330>
    80002d48:	06200793          	li	a5,98
    80002d4c:	10f70063          	beq	a4,a5,80002e4c <_doprnt+0x310>
    80002d50:	00013583          	ld	a1,0(sp)
    80002d54:	000cc503          	lbu	a0,0(s9)
    80002d58:	000980e7          	jalr	s3
    80002d5c:	ffe00793          	li	a5,-2
    80002d60:	2ef50c63          	beq	a0,a5,80003058 <_doprnt+0x51c>
    80002d64:	0019091b          	addiw	s2,s2,1
    80002d68:	001c8c93          	addi	s9,s9,1
    80002d6c:	00040d13          	mv	s10,s0
    80002d70:	38c0006f          	j	800030fc <_doprnt+0x5c0>
    80002d74:	06400793          	li	a5,100
    80002d78:	fcf71ce3          	bne	a4,a5,80002d50 <_doprnt+0x214>
    80002d7c:	00300793          	li	a5,3
    80002d80:	00840d13          	addi	s10,s0,8
    80002d84:	08f59e63          	bne	a1,a5,80002e20 <_doprnt+0x2e4>
    80002d88:	00043783          	ld	a5,0(s0)
    80002d8c:	00160c93          	addi	s9,a2,1
    80002d90:	0a07d663          	bgez	a5,80002e3c <_doprnt+0x300>
    80002d94:	40f007b3          	neg	a5,a5
    80002d98:	00a00613          	li	a2,10
    80002d9c:	02d00413          	li	s0,45
    80002da0:	00001717          	auipc	a4,0x1
    80002da4:	db870713          	addi	a4,a4,-584 # 80003b58 <digits_lc>
    80002da8:	0e80006f          	j	80002e90 <_doprnt+0x354>
    80002dac:	07500793          	li	a5,117
    80002db0:	06f70c63          	beq	a4,a5,80002e28 <_doprnt+0x2ec>
    80002db4:	07800793          	li	a5,120
    80002db8:	1ef70e63          	beq	a4,a5,80002fb4 <_doprnt+0x478>
    80002dbc:	07300793          	li	a5,115
    80002dc0:	f8f718e3          	bne	a4,a5,80002d50 <_doprnt+0x214>
    80002dc4:	00043d83          	ld	s11,0(s0)
    80002dc8:	00840d13          	addi	s10,s0,8
    80002dcc:	00160c93          	addi	s9,a2,1
    80002dd0:	020d9463          	bnez	s11,80002df8 <_doprnt+0x2bc>
    80002dd4:	00001d97          	auipc	s11,0x1
    80002dd8:	d6cd8d93          	addi	s11,s11,-660 # 80003b40 <syscall_table+0x528>
    80002ddc:	01c0006f          	j	80002df8 <_doprnt+0x2bc>
    80002de0:	00042783          	lw	a5,0(s0)
    80002de4:	00840d13          	addi	s10,s0,8
    80002de8:	000108a3          	sb	zero,17(sp)
    80002dec:	00f10823          	sb	a5,16(sp)
    80002df0:	00160c93          	addi	s9,a2,1
    80002df4:	01010d93          	addi	s11,sp,16
    80002df8:	000d8513          	mv	a0,s11
    80002dfc:	354000ef          	jal	ra,80003150 <strlen>
    80002e00:	00050c1b          	sext.w	s8,a0
    80002e04:	0004ca63          	bltz	s1,80002e18 <_doprnt+0x2dc>
    80002e08:	00048713          	mv	a4,s1
    80002e0c:	009c5463          	bge	s8,s1,80002e14 <_doprnt+0x2d8>
    80002e10:	000c0713          	mv	a4,s8
    80002e14:	00070c1b          	sext.w	s8,a4
    80002e18:	00000413          	li	s0,0
    80002e1c:	1040006f          	j	80002f20 <_doprnt+0x3e4>
    80002e20:	00042783          	lw	a5,0(s0)
    80002e24:	f69ff06f          	j	80002d8c <_doprnt+0x250>
    80002e28:	00300793          	li	a5,3
    80002e2c:	00160c93          	addi	s9,a2,1
    80002e30:	00840d13          	addi	s10,s0,8
    80002e34:	00f59863          	bne	a1,a5,80002e44 <_doprnt+0x308>
    80002e38:	00043783          	ld	a5,0(s0)
    80002e3c:	00a00613          	li	a2,10
    80002e40:	0240006f          	j	80002e64 <_doprnt+0x328>
    80002e44:	00046783          	lwu	a5,0(s0)
    80002e48:	ff5ff06f          	j	80002e3c <_doprnt+0x300>
    80002e4c:	00300793          	li	a5,3
    80002e50:	00160c93          	addi	s9,a2,1
    80002e54:	00840d13          	addi	s10,s0,8
    80002e58:	16f59c63          	bne	a1,a5,80002fd0 <_doprnt+0x494>
    80002e5c:	00043783          	ld	a5,0(s0)
    80002e60:	00200613          	li	a2,2
    80002e64:	00000413          	li	s0,0
    80002e68:	f39ff06f          	j	80002da0 <_doprnt+0x264>
    80002e6c:	00300793          	li	a5,3
    80002e70:	00160c93          	addi	s9,a2,1
    80002e74:	00840d13          	addi	s10,s0,8
    80002e78:	16f59063          	bne	a1,a5,80002fd8 <_doprnt+0x49c>
    80002e7c:	00043783          	ld	a5,0(s0)
    80002e80:	01000613          	li	a2,16
    80002e84:	00000413          	li	s0,0
    80002e88:	00001717          	auipc	a4,0x1
    80002e8c:	cc070713          	addi	a4,a4,-832 # 80003b48 <digits_uc>
    80002e90:	00001597          	auipc	a1,0x1
    80002e94:	cb858593          	addi	a1,a1,-840 # 80003b48 <digits_uc>
    80002e98:	02061513          	slli	a0,a2,0x20
    80002e9c:	00c58633          	add	a2,a1,a2
    80002ea0:	02064603          	lbu	a2,32(a2)
    80002ea4:	04010c23          	sb	zero,88(sp)
    80002ea8:	02055513          	srli	a0,a0,0x20
    80002eac:	12061e63          	bnez	a2,80002fe8 <_doprnt+0x4ac>
    80002eb0:	00100593          	li	a1,1
    80002eb4:	02a7f633          	remu	a2,a5,a0
    80002eb8:	05810693          	addi	a3,sp,88
    80002ebc:	00b68833          	add	a6,a3,a1
    80002ec0:	00c70633          	add	a2,a4,a2
    80002ec4:	00064603          	lbu	a2,0(a2)
    80002ec8:	00c80023          	sb	a2,0(a6)
    80002ecc:	00078813          	mv	a6,a5
    80002ed0:	00058613          	mv	a2,a1
    80002ed4:	02a7d7b3          	divu	a5,a5,a0
    80002ed8:	00158593          	addi	a1,a1,1
    80002edc:	fca87ce3          	bgeu	a6,a0,80002eb4 <_doprnt+0x378>
    80002ee0:	01010713          	addi	a4,sp,16
    80002ee4:	0006079b          	sext.w	a5,a2
    80002ee8:	00070d93          	mv	s11,a4
    80002eec:	fff00613          	li	a2,-1
    80002ef0:	05810693          	addi	a3,sp,88
    80002ef4:	00f685b3          	add	a1,a3,a5
    80002ef8:	0005c583          	lbu	a1,0(a1)
    80002efc:	fff78793          	addi	a5,a5,-1
    80002f00:	00170713          	addi	a4,a4,1
    80002f04:	feb70fa3          	sb	a1,-1(a4)
    80002f08:	0007859b          	sext.w	a1,a5
    80002f0c:	fec592e3          	bne	a1,a2,80002ef0 <_doprnt+0x3b4>
    80002f10:	000d8513          	mv	a0,s11
    80002f14:	23c000ef          	jal	ra,80003150 <strlen>
    80002f18:	00050c1b          	sext.w	s8,a0
    80002f1c:	1004d663          	bgez	s1,80003028 <_doprnt+0x4ec>
    80002f20:	00000a13          	li	s4,0
    80002f24:	014c063b          	addw	a2,s8,s4
    80002f28:	008035b3          	snez	a1,s0
    80002f2c:	00b605bb          	addw	a1,a2,a1
    80002f30:	00000493          	li	s1,0
    80002f34:	0175d463          	bge	a1,s7,80002f3c <_doprnt+0x400>
    80002f38:	40bb84bb          	subw	s1,s7,a1
    80002f3c:	020b1663          	bnez	s6,80002f68 <_doprnt+0x42c>
    80002f40:	03000613          	li	a2,48
    80002f44:	00000693          	li	a3,0
    80002f48:	00ca8663          	beq	s5,a2,80002f54 <_doprnt+0x418>
    80002f4c:	00048693          	mv	a3,s1
    80002f50:	000a0493          	mv	s1,s4
    80002f54:	00000a13          	li	s4,0
    80002f58:	0eda4263          	blt	s4,a3,8000303c <_doprnt+0x500>
    80002f5c:	012a093b          	addw	s2,s4,s2
    80002f60:	00048a13          	mv	s4,s1
    80002f64:	00068493          	mv	s1,a3
    80002f68:	00040e63          	beqz	s0,80002f84 <_doprnt+0x448>
    80002f6c:	00013583          	ld	a1,0(sp)
    80002f70:	02d00513          	li	a0,45
    80002f74:	000980e7          	jalr	s3
    80002f78:	ffe00693          	li	a3,-2
    80002f7c:	0cd50e63          	beq	a0,a3,80003058 <_doprnt+0x51c>
    80002f80:	0019091b          	addiw	s2,s2,1
    80002f84:	00000413          	li	s0,0
    80002f88:	11444e63          	blt	s0,s4,800030a4 <_doprnt+0x568>
    80002f8c:	00000a13          	li	s4,0
    80002f90:	000a069b          	sext.w	a3,s4
    80002f94:	1386c663          	blt	a3,s8,800030c0 <_doprnt+0x584>
    80002f98:	0124043b          	addw	s0,s0,s2
    80002f9c:	0144043b          	addw	s0,s0,s4
    80002fa0:	0004091b          	sext.w	s2,s0
    80002fa4:	140b0c63          	beqz	s6,800030fc <_doprnt+0x5c0>
    80002fa8:	00000913          	li	s2,0
    80002fac:	ffe00b13          	li	s6,-2
    80002fb0:	1440006f          	j	800030f4 <_doprnt+0x5b8>
    80002fb4:	00300793          	li	a5,3
    80002fb8:	00160c93          	addi	s9,a2,1
    80002fbc:	00840d13          	addi	s10,s0,8
    80002fc0:	02f59063          	bne	a1,a5,80002fe0 <_doprnt+0x4a4>
    80002fc4:	00043783          	ld	a5,0(s0)
    80002fc8:	01000613          	li	a2,16
    80002fcc:	e99ff06f          	j	80002e64 <_doprnt+0x328>
    80002fd0:	00046783          	lwu	a5,0(s0)
    80002fd4:	e8dff06f          	j	80002e60 <_doprnt+0x324>
    80002fd8:	00046783          	lwu	a5,0(s0)
    80002fdc:	ea5ff06f          	j	80002e80 <_doprnt+0x344>
    80002fe0:	00046783          	lwu	a5,0(s0)
    80002fe4:	fe5ff06f          	j	80002fc8 <_doprnt+0x48c>
    80002fe8:	fff00593          	li	a1,-1
    80002fec:	00c595b3          	sll	a1,a1,a2
    80002ff0:	0006081b          	sext.w	a6,a2
    80002ff4:	fff5c593          	not	a1,a1
    80002ff8:	00100513          	li	a0,1
    80002ffc:	00f5f633          	and	a2,a1,a5
    80003000:	00c70633          	add	a2,a4,a2
    80003004:	00064603          	lbu	a2,0(a2)
    80003008:	05810693          	addi	a3,sp,88
    8000300c:	00a688b3          	add	a7,a3,a0
    80003010:	00c88023          	sb	a2,0(a7)
    80003014:	0107d7b3          	srl	a5,a5,a6
    80003018:	00050613          	mv	a2,a0
    8000301c:	00150513          	addi	a0,a0,1
    80003020:	fc079ee3          	bnez	a5,80002ffc <_doprnt+0x4c0>
    80003024:	ebdff06f          	j	80002ee0 <_doprnt+0x3a4>
    80003028:	00000a13          	li	s4,0
    8000302c:	009c5463          	bge	s8,s1,80003034 <_doprnt+0x4f8>
    80003030:	41848a3b          	subw	s4,s1,s8
    80003034:	02000a93          	li	s5,32
    80003038:	eedff06f          	j	80002f24 <_doprnt+0x3e8>
    8000303c:	00013583          	ld	a1,0(sp)
    80003040:	000a8513          	mv	a0,s5
    80003044:	00d13423          	sd	a3,8(sp)
    80003048:	000980e7          	jalr	s3
    8000304c:	ffe00613          	li	a2,-2
    80003050:	00813683          	ld	a3,8(sp)
    80003054:	04c51463          	bne	a0,a2,8000309c <_doprnt+0x560>
    80003058:	ffe00913          	li	s2,-2
    8000305c:	10813083          	ld	ra,264(sp)
    80003060:	10013403          	ld	s0,256(sp)
    80003064:	0f813483          	ld	s1,248(sp)
    80003068:	0e813983          	ld	s3,232(sp)
    8000306c:	0e013a03          	ld	s4,224(sp)
    80003070:	0d813a83          	ld	s5,216(sp)
    80003074:	0d013b03          	ld	s6,208(sp)
    80003078:	0c813b83          	ld	s7,200(sp)
    8000307c:	0c013c03          	ld	s8,192(sp)
    80003080:	0b813c83          	ld	s9,184(sp)
    80003084:	0b013d03          	ld	s10,176(sp)
    80003088:	0a813d83          	ld	s11,168(sp)
    8000308c:	00090513          	mv	a0,s2
    80003090:	0f013903          	ld	s2,240(sp)
    80003094:	11010113          	addi	sp,sp,272
    80003098:	00008067          	ret
    8000309c:	001a0a1b          	addiw	s4,s4,1
    800030a0:	eb9ff06f          	j	80002f58 <_doprnt+0x41c>
    800030a4:	00013583          	ld	a1,0(sp)
    800030a8:	03000513          	li	a0,48
    800030ac:	000980e7          	jalr	s3
    800030b0:	ffe00693          	li	a3,-2
    800030b4:	fad502e3          	beq	a0,a3,80003058 <_doprnt+0x51c>
    800030b8:	0014041b          	addiw	s0,s0,1
    800030bc:	ecdff06f          	j	80002f88 <_doprnt+0x44c>
    800030c0:	014d86b3          	add	a3,s11,s4
    800030c4:	00013583          	ld	a1,0(sp)
    800030c8:	0006c503          	lbu	a0,0(a3)
    800030cc:	001a0a13          	addi	s4,s4,1
    800030d0:	000980e7          	jalr	s3
    800030d4:	ffe00613          	li	a2,-2
    800030d8:	eac51ce3          	bne	a0,a2,80002f90 <_doprnt+0x454>
    800030dc:	f7dff06f          	j	80003058 <_doprnt+0x51c>
    800030e0:	00013583          	ld	a1,0(sp)
    800030e4:	000a8513          	mv	a0,s5
    800030e8:	000980e7          	jalr	s3
    800030ec:	f76506e3          	beq	a0,s6,80003058 <_doprnt+0x51c>
    800030f0:	0019091b          	addiw	s2,s2,1
    800030f4:	fe9946e3          	blt	s2,s1,800030e0 <_doprnt+0x5a4>
    800030f8:	0124093b          	addw	s2,s0,s2
    800030fc:	000d0413          	mv	s0,s10
    80003100:	a89ff06f          	j	80002b88 <_doprnt+0x4c>
    80003104:	00078c93          	mv	s9,a5
    80003108:	c49ff06f          	j	80002d50 <_doprnt+0x214>

000000008000310c <memset>:
    8000310c:	0ff5f593          	zext.b	a1,a1
    80003110:	00000793          	li	a5,0
    80003114:	00c79463          	bne	a5,a2,8000311c <memset+0x10>
    80003118:	00008067          	ret
    8000311c:	00f50733          	add	a4,a0,a5
    80003120:	00b70023          	sb	a1,0(a4)
    80003124:	00178793          	addi	a5,a5,1
    80003128:	fedff06f          	j	80003114 <memset+0x8>

000000008000312c <strcmp>:
    8000312c:	00054783          	lbu	a5,0(a0)
    80003130:	0005c703          	lbu	a4,0(a1)
    80003134:	00e79463          	bne	a5,a4,8000313c <strcmp+0x10>
    80003138:	00079663          	bnez	a5,80003144 <strcmp+0x18>
    8000313c:	40e7853b          	subw	a0,a5,a4
    80003140:	00008067          	ret
    80003144:	00150513          	addi	a0,a0,1
    80003148:	00158593          	addi	a1,a1,1
    8000314c:	fe1ff06f          	j	8000312c <strcmp>

0000000080003150 <strlen>:
    80003150:	00050793          	mv	a5,a0
    80003154:	00000513          	li	a0,0
    80003158:	00a78733          	add	a4,a5,a0
    8000315c:	00074703          	lbu	a4,0(a4)
    80003160:	00071463          	bnez	a4,80003168 <strlen+0x18>
    80003164:	00008067          	ret
    80003168:	00150513          	addi	a0,a0,1
    8000316c:	fedff06f          	j	80003158 <strlen+0x8>

0000000080003170 <strncmp>:
    80003170:	00000713          	li	a4,0
    80003174:	00c71663          	bne	a4,a2,80003180 <strncmp+0x10>
    80003178:	00000513          	li	a0,0
    8000317c:	00008067          	ret
    80003180:	00e507b3          	add	a5,a0,a4
    80003184:	0007c783          	lbu	a5,0(a5)
    80003188:	00e586b3          	add	a3,a1,a4
    8000318c:	0006c683          	lbu	a3,0(a3)
    80003190:	00078463          	beqz	a5,80003198 <strncmp+0x28>
    80003194:	00d78663          	beq	a5,a3,800031a0 <strncmp+0x30>
    80003198:	40d7853b          	subw	a0,a5,a3
    8000319c:	00008067          	ret
    800031a0:	00170713          	addi	a4,a4,1
    800031a4:	fd1ff06f          	j	80003174 <strncmp+0x4>

00000000800031a8 <strncpy>:
    800031a8:	00000793          	li	a5,0
    800031ac:	00f58733          	add	a4,a1,a5
    800031b0:	00074703          	lbu	a4,0(a4)
    800031b4:	02070463          	beqz	a4,800031dc <strncpy+0x34>
    800031b8:	00c79463          	bne	a5,a2,800031c0 <strncpy+0x18>
    800031bc:	00008067          	ret
    800031c0:	00f506b3          	add	a3,a0,a5
    800031c4:	00e68023          	sb	a4,0(a3)
    800031c8:	00178793          	addi	a5,a5,1
    800031cc:	fe1ff06f          	j	800031ac <strncpy+0x4>
    800031d0:	00f50733          	add	a4,a0,a5
    800031d4:	00070023          	sb	zero,0(a4)
    800031d8:	00178793          	addi	a5,a5,1
    800031dc:	fec7eae3          	bltu	a5,a2,800031d0 <strncpy+0x28>
    800031e0:	00008067          	ret

00000000800031e4 <strnlen>:
    800031e4:	00050793          	mv	a5,a0
    800031e8:	00000513          	li	a0,0
    800031ec:	00a78733          	add	a4,a5,a0
    800031f0:	00074703          	lbu	a4,0(a4)
    800031f4:	00070463          	beqz	a4,800031fc <strnlen+0x18>
    800031f8:	00b51463          	bne	a0,a1,80003200 <strnlen+0x1c>
    800031fc:	00008067          	ret
    80003200:	00150513          	addi	a0,a0,1
    80003204:	fe9ff06f          	j	800031ec <strnlen+0x8>

0000000080003208 <strrchr>:
    80003208:	00050793          	mv	a5,a0
    8000320c:	0ff5f593          	zext.b	a1,a1
    80003210:	00000513          	li	a0,0
    80003214:	0007c703          	lbu	a4,0(a5)
    80003218:	00b71463          	bne	a4,a1,80003220 <strrchr+0x18>
    8000321c:	00078513          	mv	a0,a5
    80003220:	00178793          	addi	a5,a5,1
    80003224:	fe0718e3          	bnez	a4,80003214 <strrchr+0xc>
    80003228:	00008067          	ret
    8000322c:	0000                	.2byte	0x0
    8000322e:	0000                	.2byte	0x0
    80003230:	7270                	.2byte	0x7270
    80003232:	756e                	.2byte	0x756e
    80003234:	6c6c                	.2byte	0x6c6c
    80003236:	0000                	.2byte	0x0
    80003238:	4528                	.2byte	0x4528
    8000323a:	626d                	.2byte	0x626d
    8000323c:	6465                	.2byte	0x6465
    8000323e:	6564                	.2byte	0x6564
    80003240:	2064                	.2byte	0x2064
    80003242:	6958                	.2byte	0x6958
    80003244:	756e                	.2byte	0x756e
    80003246:	2029                	.2byte	0x2029
    80003248:	7228                	.2byte	0x7228
    8000324a:	7369                	.2byte	0x7369
    8000324c:	712d7663          	bgeu	s10,s2,80003958 <syscall_table+0x340>
    80003250:	6d65                	.2byte	0x6d65
    80003252:	2975                	.2byte	0x2975
    80003254:	2320                	.2byte	0x2320
    80003256:	3632                	.2byte	0x3632
    80003258:	2820                	.2byte	0x2820
    8000325a:	6761                	.2byte	0x6761
    8000325c:	6265                	.2byte	0x6265
    8000325e:	6168                	.2byte	0x6168
    80003260:	6472                	.2byte	0x6472
    80003262:	6140                	.2byte	0x6140
    80003264:	676c                	.2byte	0x676c
    80003266:	2d65                	.2byte	0x2d65
    80003268:	584c                	.2byte	0x584c
    8000326a:	414c                	.2byte	0x414c
    8000326c:	5450                	.2byte	0x5450
    8000326e:	2029504f          	fnmadd.s	ft0,fs2,ft2,ft4,unknown
    80003272:	6854                	.2byte	0x6854
    80003274:	2075                	.2byte	0x2075
    80003276:	2074634f          	fnmadd.s	ft6,fs0,ft7,ft4,unknown
    8000327a:	3032                	.2byte	0x3032
    8000327c:	3020                	.2byte	0x3020
    8000327e:	34323a37          	lui	s4,0x34323
    80003282:	323a                	.2byte	0x323a
    80003284:	4d502037          	lui	zero,0x4d502
    80003288:	4320                	.2byte	0x4320
    8000328a:	5444                	.2byte	0x5444
    8000328c:	3220                	.2byte	0x3220
    8000328e:	3230                	.2byte	0x3230
    80003290:	0032                	.2byte	0x32
    80003292:	0000                	.2byte	0x0
    80003294:	0000                	.2byte	0x0
    80003296:	0000                	.2byte	0x0
    80003298:	6544                	.2byte	0x6544
    8000329a:	6574                	.2byte	0x6574
    8000329c:	64657463          	bgeu	a0,t1,800038e4 <syscall_table+0x2cc>
    800032a0:	7020                	.2byte	0x7020
    800032a2:	616c                	.2byte	0x616c
    800032a4:	6674                	.2byte	0x6674
    800032a6:	206d726f          	jal	tp,800da4ac <_end+0xce4ac>
    800032aa:	7361                	.2byte	0x7361
    800032ac:	203a                	.2byte	0x203a
    800032ae:	5d73255b          	.4byte	0x5d73255b
    800032b2:	2520                	.2byte	0x2520
    800032b4:	76282073          	csrs	0x762,a6
    800032b8:	7265                	.2byte	0x7265
    800032ba:	2520                	.2byte	0x2520
    800032bc:	2964                	.2byte	0x2964
    800032be:	5220                	.2byte	0x5220
    800032c0:	2556                	.2byte	0x2556
    800032c2:	4964                	.2byte	0x4964
    800032c4:	2520                	.2byte	0x2520
    800032c6:	0a0d2073          	csrs	0xa0,s10
    800032ca:	0a0d                	.2byte	0xa0d
    800032cc:	0000                	.2byte	0x0
    800032ce:	0000                	.2byte	0x0
    800032d0:	3125                	.2byte	0x3125
    800032d2:	6430                	.2byte	0x6430
    800032d4:	6220                	.2byte	0x6220
    800032d6:	7479                	.2byte	0x7479
    800032d8:	7365                	.2byte	0x7365
    800032da:	7020                	.2byte	0x7020
    800032dc:	7968                	.2byte	0x7968
    800032de:	61636973          	csrrsi	s2,0x616,6
    800032e2:	206c                	.2byte	0x206c
    800032e4:	656d                	.2byte	0x656d
    800032e6:	6f6d                	.2byte	0x6f6d
    800032e8:	7972                	.2byte	0x7972
    800032ea:	0d2e                	.2byte	0xd2e
    800032ec:	000a                	.2byte	0xa
    800032ee:	0000                	.2byte	0x0
    800032f0:	2020                	.2byte	0x2020
    800032f2:	2020                	.2byte	0x2020
    800032f4:	2020                	.2byte	0x2020
    800032f6:	2020                	.2byte	0x2020
    800032f8:	2020                	.2byte	0x2020
    800032fa:	5b20                	.2byte	0x5b20
    800032fc:	7830                	.2byte	0x7830
    800032fe:	3025                	.2byte	0x3025
    80003300:	3631                	.2byte	0x3631
    80003302:	586c                	.2byte	0x586c
    80003304:	7420                	.2byte	0x7420
    80003306:	7830206f          	j	80006288 <nsyscall+0x204>
    8000330a:	3025                	.2byte	0x3025
    8000330c:	3631                	.2byte	0x3631
    8000330e:	586c                	.2byte	0x586c
    80003310:	0d5d                	.2byte	0xd5d
    80003312:	000a                	.2byte	0xa
    80003314:	0000                	.2byte	0x0
    80003316:	0000                	.2byte	0x0
    80003318:	3125                	.2byte	0x3125
    8000331a:	6c30                	.2byte	0x6c30
    8000331c:	2075                	.2byte	0x2075
    8000331e:	7962                	.2byte	0x7962
    80003320:	6574                	.2byte	0x6574
    80003322:	65722073          	csrs	0x657,tp
    80003326:	76726573          	csrrsi	a0,0x767,4
    8000332a:	6465                	.2byte	0x6465
    8000332c:	7320                	.2byte	0x7320
    8000332e:	7379                	.2byte	0x7379
    80003330:	6574                	.2byte	0x6574
    80003332:	206d                	.2byte	0x206d
    80003334:	7261                	.2byte	0x7261
    80003336:	6165                	.2byte	0x6165
    80003338:	0d2e                	.2byte	0xd2e
    8000333a:	000a                	.2byte	0xa
    8000333c:	0000                	.2byte	0x0
    8000333e:	0000                	.2byte	0x0
    80003340:	3125                	.2byte	0x3125
    80003342:	6430                	.2byte	0x6430
    80003344:	6220                	.2byte	0x6220
    80003346:	7479                	.2byte	0x7479
    80003348:	7365                	.2byte	0x7365
    8000334a:	5820                	.2byte	0x5820
    8000334c:	6e69                	.2byte	0x6e69
    8000334e:	2075                	.2byte	0x2075
    80003350:	65646f63          	bltu	s0,s6,800039ae <syscall_table+0x396>
    80003354:	0d2e                	.2byte	0xd2e
    80003356:	000a                	.2byte	0xa
    80003358:	3125                	.2byte	0x3125
    8000335a:	6430                	.2byte	0x6430
    8000335c:	6220                	.2byte	0x6220
    8000335e:	7479                	.2byte	0x7479
    80003360:	7365                	.2byte	0x7365
    80003362:	6b20                	.2byte	0x6b20
    80003364:	7265                	.2byte	0x7265
    80003366:	656e                	.2byte	0x656e
    80003368:	206c                	.2byte	0x206c
    8000336a:	63617473          	csrrci	s0,0x636,2
    8000336e:	7073206b          	.4byte	0x7073206b
    80003372:	6361                	.2byte	0x6361
    80003374:	2e65                	.2byte	0x2e65
    80003376:	0a0d                	.2byte	0xa0d
	...
    80003380:	3125                	.2byte	0x3125
    80003382:	6430                	.2byte	0x6430
    80003384:	6220                	.2byte	0x6220
    80003386:	7479                	.2byte	0x7479
    80003388:	7365                	.2byte	0x7365
    8000338a:	6820                	.2byte	0x6820
    8000338c:	6165                	.2byte	0x6165
    8000338e:	2070                	.2byte	0x2070
    80003390:	63617073          	csrci	0x636,2
    80003394:	2e65                	.2byte	0x2e65
    80003396:	0a0d                	.2byte	0xa0d
	...
    800033a0:	2020                	.2byte	0x2020
    800033a2:	2020                	.2byte	0x2020
    800033a4:	2020                	.2byte	0x2020
    800033a6:	2020                	.2byte	0x2020
    800033a8:	2020                	.2byte	0x2020
    800033aa:	5b20                	.2byte	0x5b20
    800033ac:	7830                	.2byte	0x7830
    800033ae:	3025                	.2byte	0x3025
    800033b0:	3631                	.2byte	0x3631
    800033b2:	586c                	.2byte	0x586c
    800033b4:	7420                	.2byte	0x7420
    800033b6:	7830206f          	j	80006338 <nsyscall+0x2b4>
    800033ba:	3025                	.2byte	0x3025
    800033bc:	3631                	.2byte	0x3631
    800033be:	586c                	.2byte	0x586c
    800033c0:	0d5d                	.2byte	0xd5d
    800033c2:	0d0a                	.2byte	0xd0a
    800033c4:	000a                	.2byte	0xa
    800033c6:	0000                	.2byte	0x0
    800033c8:	616d                	.2byte	0x616d
    800033ca:	6e69                	.2byte	0x6e69
    800033cc:	0000                	.2byte	0x0
    800033ce:	0000                	.2byte	0x0
    800033d0:	6552                	.2byte	0x6552
    800033d2:	76726573          	csrrsi	a0,0x767,4
    800033d6:	6465                	.2byte	0x6465
    800033d8:	5320                	.2byte	0x5320
    800033da:	7379                	.2byte	0x7379
    800033dc:	6574                	.2byte	0x6574
    800033de:	206d                	.2byte	0x206d
    800033e0:	7241                	.2byte	0x7241
    800033e2:	6165                	.2byte	0x6165
    800033e4:	0a0d3a73          	csrrc	s4,0xa0,s10
	...
    800033f0:	6441                	.2byte	0x6441
    800033f2:	7264                	.2byte	0x7264
    800033f4:	7365                	.2byte	0x7365
    800033f6:	30203a73          	csrrc	s4,medeleg,zero
    800033fa:	2578                	.2byte	0x2578
    800033fc:	3130                	.2byte	0x3130
    800033fe:	5836                	.2byte	0x5836
    80003400:	0a0d                	.2byte	0xa0d
    80003402:	0000                	.2byte	0x0
    80003404:	0000                	.2byte	0x0
    80003406:	0000                	.2byte	0x0
    80003408:	657a6953          	.4byte	0x657a6953
    8000340c:	203a                	.2byte	0x203a
    8000340e:	6425                	.2byte	0x6425
    80003410:	0a0d                	.2byte	0xa0d
    80003412:	0000                	.2byte	0x0
    80003414:	0000                	.2byte	0x0
    80003416:	0000                	.2byte	0x0
    80003418:	6572                	.2byte	0x6572
    8000341a:	00000067          	jr	zero # 0 <_binary_data_elf_size-0x1420>
    8000341e:	0000                	.2byte	0x0
    80003420:	636f6c63          	bltu	t5,s6,80003a58 <syscall_table+0x440>
    80003424:	72662d6b          	.4byte	0x72662d6b
    80003428:	7165                	.2byte	0x7165
    8000342a:	6575                	.2byte	0x6575
    8000342c:	636e                	.2byte	0x636e
    8000342e:	0079                	.2byte	0x79
    80003430:	6f6d                	.2byte	0x6f6d
    80003432:	6564                	.2byte	0x6564
    80003434:	006c                	.2byte	0x6c
    80003436:	0000                	.2byte	0x0
    80003438:	656d                	.2byte	0x656d
    8000343a:	6f6d                	.2byte	0x6f6d
    8000343c:	7972                	.2byte	0x7972
    8000343e:	0040                	.2byte	0x40
    80003440:	6175                	.2byte	0x6175
    80003442:	7472                	.2byte	0x7472
    80003444:	0040                	.2byte	0x40
    80003446:	0000                	.2byte	0x0
    80003448:	5245                	.2byte	0x5245
    8000344a:	4f52                	.2byte	0x4f52
    8000344c:	3a52                	.2byte	0x3a52
    8000344e:	5520                	.2byte	0x5520
    80003450:	6b6e                	.2byte	0x6b6e
    80003452:	6f6e                	.2byte	0x6f6e
    80003454:	64206e77          	.4byte	0x64206e77
    80003458:	7665                	.2byte	0x7665
    8000345a:	6369                	.2byte	0x6369
    8000345c:	2065                	.2byte	0x2065
    8000345e:	7274                	.2byte	0x7274
    80003460:	6565                	.2byte	0x6565
    80003462:	7420                	.2byte	0x7420
    80003464:	6e656b6f          	jal	s6,80059b4a <_end+0x4db4a>
    80003468:	3020                	.2byte	0x3020
    8000346a:	2578                	.2byte	0x2578
    8000346c:	3830                	.2byte	0x3830
    8000346e:	0d58                	.2byte	0xd58
    80003470:	000a                	.2byte	0xa
    80003472:	0000                	.2byte	0x0
    80003474:	0000                	.2byte	0x0
    80003476:	0000                	.2byte	0x0
    80003478:	5245                	.2byte	0x5245
    8000347a:	4f52                	.2byte	0x4f52
    8000347c:	3a52                	.2byte	0x3a52
    8000347e:	4920                	.2byte	0x4920
    80003480:	766e                	.2byte	0x766e
    80003482:	6c61                	.2byte	0x6c61
    80003484:	6469                	.2byte	0x6469
    80003486:	4420                	.2byte	0x4420
    80003488:	7665                	.2byte	0x7665
    8000348a:	6369                	.2byte	0x6369
    8000348c:	2065                	.2byte	0x2065
    8000348e:	7254                	.2byte	0x7254
    80003490:	6565                	.2byte	0x6565
    80003492:	0021                	.2byte	0x21
    80003494:	e4c4                	.2byte	0xe4c4
    80003496:	ffff                	.2byte	0xffff
    80003498:	e534                	.2byte	0xe534
    8000349a:	ffff                	.2byte	0xffff
    8000349c:	e4e4                	.2byte	0xe4e4
    8000349e:	ffff                	.2byte	0xffff
    800034a0:	e540                	.2byte	0xe540
    800034a2:	ffff                	.2byte	0xffff
    800034a4:	e548                	.2byte	0xe548
    800034a6:	ffff                	.2byte	0xffff
    800034a8:	e548                	.2byte	0xe548
    800034aa:	ffff                	.2byte	0xffff
    800034ac:	e548                	.2byte	0xe548
    800034ae:	ffff                	.2byte	0xffff
    800034b0:	e548                	.2byte	0xe548
    800034b2:	ffff                	.2byte	0xffff
    800034b4:	e588                	.2byte	0xe588
    800034b6:	ffff                	.2byte	0xffff
    800034b8:	614d                	.2byte	0x614d
    800034ba:	7070                	.2byte	0x7070
    800034bc:	6e69                	.2byte	0x6e69
    800034be:	6c612067          	.4byte	0x6c612067
    800034c2:	206c                	.2byte	0x206c
    800034c4:	5220666f          	jal	a2,800099e6 <proctab+0x292e>
    800034c8:	4d41                	.2byte	0x4d41
    800034ca:	0a0d                	.2byte	0xa0d
    800034cc:	0000                	.2byte	0x0
    800034ce:	0000                	.2byte	0x0
    800034d0:	53585443          	fmadd.d	fs0,fa6,fs5,fa0,unknown
    800034d4:	73692057          	.4byte	0x73692057
    800034d8:	6120                	.2byte	0x6120
    800034da:	2074                	.2byte	0x2074
    800034dc:	7830                	.2byte	0x7830
    800034de:	3025                	.2byte	0x3025
    800034e0:	5838                	.2byte	0x5838
    800034e2:	0a0d                	.2byte	0xa0d
    800034e4:	0000                	.2byte	0x0
    800034e6:	0000                	.2byte	0x0
    800034e8:	4142                	.2byte	0x4142
    800034ea:	2044                	.2byte	0x2044
    800034ec:	5551                	.2byte	0x5551
    800034ee:	5545                	.2byte	0x5545
    800034f0:	0d45                	.2byte	0xd45
    800034f2:	000a                	.2byte	0xa
    800034f4:	0000                	.2byte	0x0
    800034f6:	0000                	.2byte	0x0
    800034f8:	6552                	.2byte	0x6552
    800034fa:	7574                	.2byte	0x7574
    800034fc:	6e72                	.2byte	0x6e72
    800034fe:	6e69                	.2byte	0x6e69
    80003500:	59532067          	.4byte	0x59532067
    80003504:	52524553          	.4byte	0x52524553
	...
    80003510:	4552                	.2byte	0x4552
    80003512:	414d                	.2byte	0x414d
    80003514:	5050                	.2byte	0x5050
    80003516:	4445                	.2byte	0x4445
    80003518:	3020                	.2byte	0x3020
    8000351a:	2578                	.2byte	0x2578
    8000351c:	3830                	.2byte	0x3830
    8000351e:	2158                	.2byte	0x2158
    80003520:	2121                	.2byte	0x2121
    80003522:	0a0d                	.2byte	0xa0d
    80003524:	0000                	.2byte	0x0
    80003526:	0000                	.2byte	0x0
    80003528:	614d                	.2byte	0x614d
    8000352a:	7070                	.2byte	0x7070
    8000352c:	6e69                	.2byte	0x6e69
    8000352e:	72662067          	.4byte	0x72662067
    80003532:	30206d6f          	jal	s10,80009834 <proctab+0x277c>
    80003536:	2578                	.2byte	0x2578
    80003538:	3830                	.2byte	0x3830
    8000353a:	2058                	.2byte	0x2058
    8000353c:	6f74                	.2byte	0x6f74
    8000353e:	3020                	.2byte	0x3020
    80003540:	2578                	.2byte	0x2578
    80003542:	3830                	.2byte	0x3830
    80003544:	2058                	.2byte	0x2058
    80003546:	6f28                	.2byte	0x6f28
    80003548:	6972                	.2byte	0x6972
    8000354a:	616e6967          	.4byte	0x616e6967
    8000354e:	206c                	.2byte	0x206c
    80003550:	656c                	.2byte	0x656c
    80003552:	206e                	.2byte	0x206e
    80003554:	203d                	.2byte	0x203d
    80003556:	6425                	.2byte	0x6425
    80003558:	202c                	.2byte	0x202c
    8000355a:	656e                	.2byte	0x656e
    8000355c:	656c2077          	.4byte	0x656c2077
    80003560:	206e                	.2byte	0x206e
    80003562:	203d                	.2byte	0x203d
    80003564:	6425                	.2byte	0x6425
    80003566:	0d29                	.2byte	0xd29
    80003568:	000a                	.2byte	0xa
    8000356a:	0000                	.2byte	0x0
    8000356c:	0000                	.2byte	0x0
    8000356e:	0000                	.2byte	0x0
    80003570:	4552                	.2byte	0x4552
    80003572:	414d                	.2byte	0x414d
    80003574:	5050                	.2byte	0x5050
    80003576:	4445                	.2byte	0x4445
    80003578:	3020                	.2byte	0x3020
    8000357a:	2578                	.2byte	0x2578
    8000357c:	3631                	.2byte	0x3631
    8000357e:	2158                	.2byte	0x2158
    80003580:	2121                	.2byte	0x2121
    80003582:	0a0d                	.2byte	0xa0d
    80003584:	0000                	.2byte	0x0
    80003586:	0000                	.2byte	0x0
    80003588:	0020                	.2byte	0x20
    8000358a:	0000                	.2byte	0x0
    8000358c:	0000                	.2byte	0x0
    8000358e:	0000                	.2byte	0x0
    80003590:	6154                	.2byte	0x6154
    80003592:	6c62                	.2byte	0x6c62
    80003594:	2065                	.2byte	0x2065
    80003596:	7461                	.2byte	0x7461
    80003598:	3020                	.2byte	0x3020
    8000359a:	2578                	.2byte	0x2578
    8000359c:	3830                	.2byte	0x3830
    8000359e:	3a58                	.2byte	0x3a58
    800035a0:	0a0d                	.2byte	0xa0d
    800035a2:	0000                	.2byte	0x0
    800035a4:	0000                	.2byte	0x0
    800035a6:	0000                	.2byte	0x0
    800035a8:	694c                	.2byte	0x694c
    800035aa:	6b6e                	.2byte	0x6b6e
    800035ac:	5020                	.2byte	0x5020
    800035ae:	4554                	.2byte	0x4554
    800035b0:	2820                	.2byte	0x2820
    800035b2:	7830                	.2byte	0x7830
    800035b4:	3025                	.2byte	0x3025
    800035b6:	5838                	.2byte	0x5838
    800035b8:	7c29                	.2byte	0x7c29
    800035ba:	4120                	.2byte	0x4120
    800035bc:	6464                	.2byte	0x6464
    800035be:	6572                	.2byte	0x6572
    800035c0:	30207373          	csrrci	t1,medeleg,0
    800035c4:	2578                	.2byte	0x2578
    800035c6:	3830                	.2byte	0x3830
    800035c8:	0d58                	.2byte	0xd58
    800035ca:	000a                	.2byte	0xa
    800035cc:	0000                	.2byte	0x0
    800035ce:	0000                	.2byte	0x0
    800035d0:	654c                	.2byte	0x654c
    800035d2:	6661                	.2byte	0x6661
    800035d4:	5020                	.2byte	0x5020
    800035d6:	4554                	.2byte	0x4554
    800035d8:	2820                	.2byte	0x2820
    800035da:	7830                	.2byte	0x7830
    800035dc:	3025                	.2byte	0x3025
    800035de:	5838                	.2byte	0x5838
    800035e0:	7c29                	.2byte	0x7c29
    800035e2:	4120                	.2byte	0x4120
    800035e4:	6464                	.2byte	0x6464
    800035e6:	6572                	.2byte	0x6572
    800035e8:	30207373          	csrrci	t1,medeleg,0
    800035ec:	2578                	.2byte	0x2578
    800035ee:	3830                	.2byte	0x3830
    800035f0:	0d58                	.2byte	0xd58
    800035f2:	000a                	.2byte	0xa
    800035f4:	0000                	.2byte	0x0
    800035f6:	0000                	.2byte	0x0
    800035f8:	5245                	.2byte	0x5245
    800035fa:	4f52                	.2byte	0x4f52
    800035fc:	3a52                	.2byte	0x3a52
    800035fe:	7520                	.2byte	0x7520
    80003600:	6b6e                	.2byte	0x6b6e
    80003602:	6f6e                	.2byte	0x6f6e
    80003604:	73206e77          	.4byte	0x73206e77
    80003608:	7379                	.2byte	0x7379
    8000360a:	6c6c6163          	bltu	s8,t1,80003ccc <base_to_nbits+0x164>
    8000360e:	2520                	.2byte	0x2520
    80003610:	2164                	.2byte	0x2164
    80003612:	0a0d                	.2byte	0xa0d
    80003614:	0000                	.2byte	0x0
	...

0000000080003618 <syscall_table>:
    80003618:	0005 0000 0000 0000 28f8 8000 0000 0000     .........(......
	...
    80003630:	2900 8000 0000 0000 0001 0000 0000 0000     .)..............
    80003640:	28f8 8000 0000 0000 0001 0000 0000 0000     .(..............
    80003650:	2934 8000 0000 0000 0002 0000 0000 0000     4)..............
    80003660:	28f8 8000 0000 0000 0001 0000 0000 0000     .(..............
    80003670:	28f8 8000 0000 0000 0003 0000 0000 0000     .(..............
    80003680:	28f8 8000 0000 0000 0003 0000 0000 0000     .(..............
    80003690:	28f8 8000 0000 0000 0001 0000 0000 0000     .(..............
    800036a0:	2904 8000 0000 0000 0002 0000 0000 0000     .)..............
    800036b0:	2918 8000 0000 0000 0002 0000 0000 0000     .)..............
    800036c0:	28f8 8000 0000 0000 0004 0000 0000 0000     .(..............
    800036d0:	28f8 8000 0000 0000 0001 0000 0000 0000     .(..............
    800036e0:	28f8 8000 0000 0000 0004 0000 0000 0000     .(..............
    800036f0:	28f8 8000 0000 0000 0002 0000 0000 0000     .(..............
    80003700:	28f8 8000 0000 0000 0001 0000 0000 0000     .(..............
    80003710:	28f8 8000 0000 0000 0001 0000 0000 0000     .(..............
    80003720:	28f8 8000 0000 0000 0a0d 0a0d 4958 554e     .(..........XINU
    80003730:	4520 6378 7065 6974 6e6f 5b20 7325 0d5d      Exception [%s].
    80003740:	000a 0000 0000 0000 6146 6c75 6974 676e     ........Faulting
    80003750:	6320 646f 3a65 3020 2578 3130 6c36 0d58      code: 0x%016lX.
    80003760:	000a 0000 0000 0000 6146 6c75 6974 676e     ........Faulting
    80003770:	6120 6464 6572 7373 203a 7830 3025 3631      address: 0x%016
    80003780:	586c 0a0d 0000 0000 305b 2578 3130 6c36     lX......[0x%016l
    80003790:	5d58 2020 3474 303a 2578 3130 6c36 2058     X]  t4:0x%016lX 
    800037a0:	2020 3574 303a 2578 3130 6c36 2058 7420       t5:0x%016lX  t
    800037b0:	3a36 7830 3025 3631 586c 0a0d 0000 0000     6:0x%016lX......
    800037c0:	305b 2578 3130 6c36 5d58 2020 3973 303a     [0x%016lX]  s9:0
    800037d0:	2578 3130 6c36 2058 2020 3173 3a30 7830     x%016lX   s10:0x
    800037e0:	3025 3631 586c 2020 3173 3a31 7830 3025     %016lX  s11:0x%0
    800037f0:	3631 586c 2020 3374 303a 2578 3130 6c36     16lX  t3:0x%016l
    80003800:	0d58 000a 0000 0000 305b 2578 3130 6c36     X.......[0x%016l
    80003810:	5d58 2020 3573 303a 2578 3130 6c36 2058     X]  s5:0x%016lX 
    80003820:	2020 3673 303a 2578 3130 6c36 2058 7320       s6:0x%016lX  s
    80003830:	3a37 7830 3025 3631 586c 2020 3873 303a     7:0x%016lX  s8:0
    80003840:	2578 3130 6c36 0d58 000a 0000 0000 0000     x%016lX.........
    80003850:	305b 2578 3130 6c36 5d58 2020 3761 303a     [0x%016lX]  a7:0
    80003860:	2578 3130 6c36 2058 2020 3273 303a 2578     x%016lX   s2:0x%
    80003870:	3130 6c36 2058 7320 3a33 7830 3025 3631     016lX  s3:0x%016
    80003880:	586c 2020 3473 303a 2578 3130 6c36 0d58     lX  s4:0x%016lX.
    80003890:	000a 0000 0000 0000 305b 2578 3130 6c36     ........[0x%016l
    800038a0:	5d58 2020 3361 303a 2578 3130 6c36 2058     X]  a3:0x%016lX 
    800038b0:	2020 3461 303a 2578 3130 6c36 2058 6120       a4:0x%016lX  a
    800038c0:	3a35 7830 3025 3631 586c 2020 3661 303a     5:0x%016lX  a6:0
    800038d0:	2578 3130 6c36 0d58 000a 0000 0000 0000     x%016lX.........
    800038e0:	305b 2578 3130 6c36 5d58 2020 3173 303a     [0x%016lX]  s1:0
    800038f0:	2578 3130 6c36 2058 2020 3061 303a 2578     x%016lX   a0:0x%
    80003900:	3130 6c36 2058 6120 3a31 7830 3025 3631     016lX  a1:0x%016
    80003910:	586c 2020 3261 303a 2578 3130 6c36 0d58     lX  a2:0x%016lX.
    80003920:	000a 0000 0000 0000 305b 2578 3130 6c36     ........[0x%016l
    80003930:	5d58 2020 3074 303a 2578 3130 6c36 2058     X]  t0:0x%016lX 
    80003940:	2020 3274 303a 2578 3130 6c36 2058 2020       t2:0x%016lX   
    80003950:	3374 303a 2578 3130 6c36 2058 2020 3073     t3:0x%016lX   s0
    80003960:	303a 2578 3130 6c36 0d58 000a 0000 0000     :0x%016lX.......
    80003970:	305b 2578 3130 6c36 5d58 2020 6172 303a     [0x%016lX]  ra:0
    80003980:	2578 3130 6c36 2058 2020 7073 303a 2578     x%016lX   sp:0x%
    80003990:	3130 6c36 2058 2020 7067 303a 2578 3130     016lX   gp:0x%01
    800039a0:	6c36 2058 2020 7074 303a 2578 3130 6c36     6lX   tp:0x%016l
    800039b0:	0d58 000a 0000 0000 6e49 7473 7572 7463     X.......Instruct
    800039c0:	6f69 206e 6461 7264 7365 2073 696d 6173     ion address misa
    800039d0:	696c 6e67 6465 0000 6e49 7473 7572 7463     ligned..Instruct
    800039e0:	6f69 206e 6361 6563 7373 6620 7561 746c     ion access fault
	...
    800039f8:	6c49 656c 6167 206c 6e69 7473 7572 7463     Illegal instruct
    80003a08:	6f69 006e 0000 0000 7242 6165 706b 696f     ion.....Breakpoi
    80003a18:	746e 0000 0000 0000 6f4c 6461 6120 6464     nt......Load add
    80003a28:	6572 7373 6d20 7369 6c61 6769 656e 0064     ress misaligned.
    80003a38:	6f4c 6461 6120 6363 7365 2073 6166 6c75     Load access faul
    80003a48:	0074 0000 0000 0000 7453 726f 2f65 4d41     t.......Store/AM
    80003a58:	204f 6461 7264 7365 2073 696d 6173 696c     O address misali
    80003a68:	6e67 6465 0000 0000 7453 726f 2f65 4d41     gned....Store/AM
    80003a78:	204f 6361 6563 7373 6620 7561 746c 0000     O access fault..
    80003a88:	6e45 6976 6f72 6d6e 6e65 2074 6163 6c6c     Environment call
    80003a98:	6620 6f72 206d 2d55 6f6d 6564 0000 0000      from U-mode....
    80003aa8:	6e45 6976 6f72 6d6e 6e65 2074 6163 6c6c     Environment call
    80003ab8:	6620 6f72 206d 2d53 6f6d 6564 0000 0000      from S-mode....
    80003ac8:	6552 6573 7672 6465 0000 0000 0000 0000     Reserved........
    80003ad8:	6e45 6976 6f72 6d6e 6e65 2074 6163 6c6c     Environment call
    80003ae8:	6620 6f72 206d 2d4d 6f6d 6564 0000 0000      from M-mode....
    80003af8:	6e49 7473 7572 7463 6f69 206e 6170 6567     Instruction page
    80003b08:	6620 7561 746c 0000 6f4c 6461 7020 6761      fault..Load pag
    80003b18:	2065 6166 6c75 0074 7453 726f 2f65 4d41     e fault.Store/AM
    80003b28:	204f 6170 6567 6620 7561 746c 0000 0000     O page fault....
    80003b38:	414d 4e49 0a0d 0000 6e28 6c75 296c 0000     MAIN....(null)..

0000000080003b48 <digits_uc>:
    80003b48:	3130 3332 3534 3736 3938 4241 4443 4645     0123456789ABCDEF

0000000080003b58 <digits_lc>:
    80003b58:	3130 3332 3534 3736 3938 6261 6463 6665     0123456789abcdef

0000000080003b68 <base_to_nbits>:
    80003b68:	0000 0001 0002 0000 0003 0000 0000 0000     ................
    80003b78:	0004 0000 0000 0000 0000 0000 0000 0000     ................
	...

0000000080004000 <_ctxsws>:
    80004000:	0a153023          	sd	ra,160(a0)
    80004004:	0a253423          	sd	sp,168(a0)
    80004008:	04853023          	sd	s0,64(a0)
    8000400c:	04953423          	sd	s1,72(a0)
    80004010:	05253823          	sd	s2,80(a0)
    80004014:	05353c23          	sd	s3,88(a0)
    80004018:	07453023          	sd	s4,96(a0)
    8000401c:	07553423          	sd	s5,104(a0)
    80004020:	07653823          	sd	s6,112(a0)
    80004024:	07753c23          	sd	s7,120(a0)
    80004028:	09853023          	sd	s8,128(a0)
    8000402c:	09953423          	sd	s9,136(a0)
    80004030:	09a53823          	sd	s10,144(a0)
    80004034:	09b53c23          	sd	s11,152(a0)
    80004038:	0a153823          	sd	ra,176(a0)
    8000403c:	00058313          	mv	t1,a1
    80004040:	00060393          	mv	t2,a2
    80004044:	00068e13          	mv	t3,a3
    80004048:	00033503          	ld	a0,0(t1)
    8000404c:	00833583          	ld	a1,8(t1)
    80004050:	01033603          	ld	a2,16(t1)
    80004054:	01833683          	ld	a3,24(t1)
    80004058:	02033703          	ld	a4,32(t1)
    8000405c:	02833783          	ld	a5,40(t1)
    80004060:	03033803          	ld	a6,48(t1)
    80004064:	03833883          	ld	a7,56(t1)
    80004068:	0a033083          	ld	ra,160(t1)
    8000406c:	0a833103          	ld	sp,168(t1)
    80004070:	04033403          	ld	s0,64(t1)
    80004074:	04833483          	ld	s1,72(t1)
    80004078:	05033903          	ld	s2,80(t1)
    8000407c:	05833983          	ld	s3,88(t1)
    80004080:	06033a03          	ld	s4,96(t1)
    80004084:	06833a83          	ld	s5,104(t1)
    80004088:	07033b03          	ld	s6,112(t1)
    8000408c:	07833b83          	ld	s7,120(t1)
    80004090:	08033c03          	ld	s8,128(t1)
    80004094:	08833c83          	ld	s9,136(t1)
    80004098:	09033d03          	ld	s10,144(t1)
    8000409c:	09833d83          	ld	s11,152(t1)
    800040a0:	0b033283          	ld	t0,176(t1)
    800040a4:	12000073          	sfence.vma
    800040a8:	18039073          	csrw	satp,t2
    800040ac:	12000073          	sfence.vma
    800040b0:	100e2073          	csrs	sstatus,t3
    800040b4:	14129073          	csrw	sepc,t0
    800040b8:	10200073          	sret
	...

0000000080005000 <_ctxswe>:
    80005000:	0053a023          	sw	t0,0(t2)
    80005004:	00128293          	addi	t0,t0,1
    80005008:	fe62ece3          	bltu	t0,t1,80005000 <_ctxswe>

000000008000500c <reset_handler>:
    8000500c:	30046073          	csrsi	mstatus,8
    80005010:	00007297          	auipc	t0,0x7
    80005014:	bb828293          	addi	t0,t0,-1096 # 8000bbc8 <dtb_addr>
    80005018:	00b2b023          	sd	a1,0(t0)
    8000501c:	00000317          	auipc	t1,0x0
    80005020:	0f430313          	addi	t1,t1,244 # 80005110 <interrupt>
    80005024:	10531073          	csrw	stvec,t1
    80005028:	00007597          	auipc	a1,0x7
    8000502c:	fd858593          	addi	a1,a1,-40 # 8000c000 <_end>
    80005030:	000026b7          	lui	a3,0x2
    80005034:	00d58133          	add	sp,a1,a3
    80005038:	00007717          	auipc	a4,0x7
    8000503c:	ba070713          	addi	a4,a4,-1120 # 8000bbd8 <memheap>
    80005040:	00272023          	sw	sp,0(a4)
    80005044:	00001337          	lui	t1,0x1
    80005048:	8003031b          	addiw	t1,t1,-2048 # 800 <_binary_data_elf_size-0xc20>
    8000504c:	30032073          	csrs	mstatus,t1
    80005050:	fff00313          	li	t1,-1
    80005054:	30232073          	csrs	medeleg,t1
    80005058:	fff00313          	li	t1,-1
    8000505c:	30332073          	csrs	mideleg,t1
    80005060:	22200313          	li	t1,546
    80005064:	10432073          	csrs	sie,t1
    80005068:	0010031b          	addiw	t1,zero,1
    8000506c:	03631313          	slli	t1,t1,0x36
    80005070:	fff30313          	addi	t1,t1,-1
    80005074:	3b031073          	csrw	pmpaddr0,t1
    80005078:	00f00313          	li	t1,15
    8000507c:	3a031073          	csrw	pmpcfg0,t1
    80005080:	00040337          	lui	t1,0x40
    80005084:	30032073          	csrs	mstatus,t1
    80005088:	ffffc317          	auipc	t1,0xffffc
    8000508c:	f7830313          	addi	t1,t1,-136 # 80001000 <nulluser>
    80005090:	34131073          	csrw	mepc,t1
    80005094:	f14021f3          	csrr	gp,mhartid
    80005098:	30200073          	mret

000000008000509c <_atomic_compareAndSwapStrong>:
    8000509c:	100522af          	lr.w	t0,(a0)
    800050a0:	00559a63          	bne	a1,t0,800050b4 <_atomic_compareAndSwapStrong+0x18>
    800050a4:	18c522af          	sc.w	t0,a2,(a0)
    800050a8:	fe029ae3          	bnez	t0,8000509c <_atomic_compareAndSwapStrong>
    800050ac:	00100513          	li	a0,1
    800050b0:	00008067          	ret
    800050b4:	00000513          	li	a0,0
    800050b8:	00008067          	ret

00000000800050bc <_atomic_compareAndSwapWeak>:
    800050bc:	100522af          	lr.w	t0,(a0)
    800050c0:	00559a63          	bne	a1,t0,800050d4 <_atomic_compareAndSwapWeak+0x18>
    800050c4:	18c522af          	sc.w	t0,a2,(a0)
    800050c8:	00029663          	bnez	t0,800050d4 <_atomic_compareAndSwapWeak+0x18>
    800050cc:	00100513          	li	a0,1
    800050d0:	00008067          	ret
    800050d4:	00000513          	li	a0,0
    800050d8:	00008067          	ret

00000000800050dc <_lock_acquire>:
    800050dc:	00100293          	li	t0,1

00000000800050e0 <again>:
    800050e0:	00052303          	lw	t1,0(a0)
    800050e4:	fe031ee3          	bnez	t1,800050e0 <again>
    800050e8:	0c55232f          	amoswap.w.aq	t1,t0,(a0)
    800050ec:	fe031ae3          	bnez	t1,800050e0 <again>
    800050f0:	00008067          	ret

00000000800050f4 <_lock_release>:
    800050f4:	0a05202f          	amoswap.w.rl	zero,zero,(a0)
    800050f8:	00008067          	ret

00000000800050fc <enable>:
    800050fc:	10016073          	csrsi	sstatus,2
    80005100:	00008067          	ret

0000000080005104 <disable>:
    80005104:	10002573          	csrr	a0,sstatus
    80005108:	10006073          	csrsi	sstatus,0
    8000510c:	00008067          	ret

0000000080005110 <interrupt>:
    80005110:	ef010113          	addi	sp,sp,-272
    80005114:	0a113023          	sd	ra,160(sp)
    80005118:	0a213423          	sd	sp,168(sp)
    8000511c:	0a313c23          	sd	gp,184(sp)
    80005120:	0c413023          	sd	tp,192(sp)
    80005124:	0c513423          	sd	t0,200(sp)
    80005128:	0c613823          	sd	t1,208(sp)
    8000512c:	0c713c23          	sd	t2,216(sp)
    80005130:	04813023          	sd	s0,64(sp)
    80005134:	04913423          	sd	s1,72(sp)
    80005138:	00a13023          	sd	a0,0(sp)
    8000513c:	00b13423          	sd	a1,8(sp)
    80005140:	00c13823          	sd	a2,16(sp)
    80005144:	00d13c23          	sd	a3,24(sp)
    80005148:	02e13023          	sd	a4,32(sp)
    8000514c:	02f13423          	sd	a5,40(sp)
    80005150:	03013823          	sd	a6,48(sp)
    80005154:	03113c23          	sd	a7,56(sp)
    80005158:	05213823          	sd	s2,80(sp)
    8000515c:	05313c23          	sd	s3,88(sp)
    80005160:	07413023          	sd	s4,96(sp)
    80005164:	07513423          	sd	s5,104(sp)
    80005168:	07613823          	sd	s6,112(sp)
    8000516c:	07713c23          	sd	s7,120(sp)
    80005170:	09813023          	sd	s8,128(sp)
    80005174:	09913423          	sd	s9,136(sp)
    80005178:	09a13823          	sd	s10,144(sp)
    8000517c:	09b13c23          	sd	s11,152(sp)
    80005180:	0fc13023          	sd	t3,224(sp)
    80005184:	0fd13423          	sd	t4,232(sp)
    80005188:	0fe13823          	sd	t5,240(sp)
    8000518c:	0ff13c23          	sd	t6,248(sp)
    80005190:	14202573          	csrr	a0,scause
    80005194:	143025f3          	csrr	a1,stval
    80005198:	141026f3          	csrr	a3,sepc
    8000519c:	00010613          	mv	a2,sp
    800051a0:	b54fc0ef          	jal	ra,800014f4 <dispatch>
    800051a4:	0a013083          	ld	ra,160(sp)
    800051a8:	0a813103          	ld	sp,168(sp)
    800051ac:	0b813183          	ld	gp,184(sp)
    800051b0:	0c013203          	ld	tp,192(sp)
    800051b4:	0c813283          	ld	t0,200(sp)
    800051b8:	0d013303          	ld	t1,208(sp)
    800051bc:	0d813383          	ld	t2,216(sp)
    800051c0:	04013403          	ld	s0,64(sp)
    800051c4:	04813483          	ld	s1,72(sp)
    800051c8:	00013503          	ld	a0,0(sp)
    800051cc:	00813583          	ld	a1,8(sp)
    800051d0:	01013603          	ld	a2,16(sp)
    800051d4:	01813683          	ld	a3,24(sp)
    800051d8:	02013703          	ld	a4,32(sp)
    800051dc:	02813783          	ld	a5,40(sp)
    800051e0:	03013803          	ld	a6,48(sp)
    800051e4:	03813883          	ld	a7,56(sp)
    800051e8:	05013903          	ld	s2,80(sp)
    800051ec:	05813983          	ld	s3,88(sp)
    800051f0:	06013a03          	ld	s4,96(sp)
    800051f4:	06813a83          	ld	s5,104(sp)
    800051f8:	07013b03          	ld	s6,112(sp)
    800051fc:	07813b83          	ld	s7,120(sp)
    80005200:	08013c03          	ld	s8,128(sp)
    80005204:	08813c83          	ld	s9,136(sp)
    80005208:	09013d03          	ld	s10,144(sp)
    8000520c:	09813d83          	ld	s11,152(sp)
    80005210:	0e013e03          	ld	t3,224(sp)
    80005214:	0e813e83          	ld	t4,232(sp)
    80005218:	0f013f03          	ld	t5,240(sp)
    8000521c:	0f813f83          	ld	t6,248(sp)
    80005220:	11010113          	addi	sp,sp,272
    80005224:	10200073          	sret
	...

0000000080005230 <gethartid>:
    80005230:	00018513          	mv	a0,gp
    80005234:	00008067          	ret

0000000080005238 <getmisa>:
    80005238:	30102573          	csrr	a0,misa
    8000523c:	00008067          	ret

0000000080005240 <set_satp>:
    80005240:	18051073          	csrw	satp,a0
    80005244:	12000073          	sfence.vma
    80005248:	00008067          	ret
